GAS LISTING C:\Users\kasie\AppData\Local\Temp\cc0VfZfb.s 			page 1


   1              		.file	"main.c"
   2              		.option nopic
   3              		.attribute arch, "rv32i2p0_m2p0_a2p0_c2p0"
   4              		.attribute unaligned_access, 0
   5              		.attribute stack_align, 16
   6              		.text
   7              	.Ltext0:
   8              		.cfi_sections	.debug_frame
   9              		.globl	__floatsidf
  10              		.globl	__divdf3
  11              		.globl	__muldf3
  12              		.globl	__truncdfsf2
  13              		.globl	__fixsfsi
  14              		.section	.text.startup.main,"ax",@progbits
  15              		.align	1
  16              		.globl	main
  18              	main:
  19              	.LFB2:
  20              		.file 1 "main.c"
   1:main.c        **** #include "gd32vf103.h"
   2:main.c        **** #include "drivers.h"
   3:main.c        **** #include "adc.h"
   4:main.c        **** #include "pwm.h"
   5:main.c        **** 
   6:main.c        **** int main(void)
   7:main.c        **** {
  21              		.loc 1 7 1
  22              		.cfi_startproc
   8:main.c        ****   int tenNumber = -1, oneNumber = -1, key;
  23              		.loc 1 8 3
  24              	.LVL0:
   9:main.c        ****   int lookUpTbl[16] = {1, 4, 7, 14, 2, 5, 8, 0, 3, 6, 9, 15, 10, 11, 12, 13};
  25              		.loc 1 9 3
   7:main.c        ****   int tenNumber = -1, oneNumber = -1, key;
  26              		.loc 1 7 1 is_stmt 0
  27 0000 5971     		addi	sp,sp,-112
  28              	.LCFI0:
  29              		.cfi_def_cfa_offset 112
  30              		.loc 1 9 7
  31 0002 B7050000 		lui	a1,%hi(.LANCHOR0)
  32 0006 13060004 		li	a2,64
  33 000a 93850500 		addi	a1,a1,%lo(.LANCHOR0)
  34 000e 0A85     		mv	a0,sp
   7:main.c        ****   int tenNumber = -1, oneNumber = -1, key;
  35              		.loc 1 7 1
  36 0010 86D6     		sw	ra,108(sp)
  37 0012 A2D4     		sw	s0,104(sp)
  38 0014 A6D2     		sw	s1,100(sp)
  39 0016 CAD0     		sw	s2,96(sp)
  40 0018 CECE     		sw	s3,92(sp)
  41 001a D2CC     		sw	s4,88(sp)
  42 001c D6CA     		sw	s5,84(sp)
  43 001e DAC8     		sw	s6,80(sp)
  44 0020 DEC6     		sw	s7,76(sp)
  45              		.cfi_offset 1, -4
  46              		.cfi_offset 8, -8
  47              		.cfi_offset 9, -12
GAS LISTING C:\Users\kasie\AppData\Local\Temp\cc0VfZfb.s 			page 2


  48              		.cfi_offset 18, -16
  49              		.cfi_offset 19, -20
  50              		.cfi_offset 20, -24
  51              		.cfi_offset 21, -28
  52              		.cfi_offset 22, -32
  53              		.cfi_offset 23, -36
  54              		.loc 1 9 7
  55 0022 97000000 		call	memcpy
  55      E7800000 
  56              	.LVL1:
  10:main.c        **** 
  11:main.c        ****   t5omsi();           // Initialize timer5 1kHz
  57              		.loc 1 11 3 is_stmt 1
  58 002a 97000000 		call	t5omsi
  58      E7800000 
  59              	.LVL2:
  12:main.c        ****   colinit();          // Initialize column toolbox
  60              		.loc 1 12 3
  61 0032 97000000 		call	colinit
  61      E7800000 
  62              	.LVL3:
  13:main.c        ****   l88init();          // Initialize 8*8 led toolbox
  63              		.loc 1 13 3
  64 003a 97000000 		call	l88init
  64      E7800000 
  65              	.LVL4:
  14:main.c        ****   keyinit();          // Initialize keyboard toolbox
  66              		.loc 1 14 3
  67 0042 97000000 		call	keyinit
  67      E7800000 
  68              	.LVL5:
  15:main.c        ****   ADC3powerUpInit(0); // Initialize ADC0, Ch3
  69              		.loc 1 15 3
  70 004a 0145     		li	a0,0
  71 004c 97000000 		call	ADC3powerUpInit
  71      E7800000 
  72              	.LVL6:
  16:main.c        **** 
  17:main.c        ****   T1powerUpInitPWM(0x2); // Sättter på lampan A0
  73              		.loc 1 17 3
  74 0054 0945     		li	a0,2
  75 0056 97000000 		call	T1powerUpInitPWM
  75      E7800000 
  76              	.LVL7:
  77              	.LBB2:
  18:main.c        **** 
  19:main.c        ****   while (1)
  20:main.c        ****   {
  21:main.c        ****     if (t5expq())
  22:main.c        ****     {                   // Manage periodic tasks
  23:main.c        ****       l88row(colset()); // ...8*8LED and Keyboard
  24:main.c        **** 
  25:main.c        ****       if ((key = keyscan()) >= 0) // Om en knapp har tryckts
  26:main.c        ****       {
  27:main.c        ****         while (1)
  28:main.c        ****         {
  29:main.c        ****           if (key == 12) // Knapp A
GAS LISTING C:\Users\kasie\AppData\Local\Temp\cc0VfZfb.s 			page 3


  30:main.c        ****           {
  31:main.c        ****             T1setPWMch2(16000);
  32:main.c        ****             break;
  33:main.c        ****           }
  34:main.c        ****           else if (key == 14) // Knapp C
  35:main.c        ****           {
  36:main.c        ****             T1setPWMch2(0);
  37:main.c        ****             break;
  38:main.c        ****           }
  39:main.c        ****           else if (key == 15 && tenNumber != -1) // Knapp D
  40:main.c        ****           {
  41:main.c        ****             float dimStrength = (((tenNumber * 10) + oneNumber) / 100.0) * 16000; // Omvandla till 
  78              		.loc 1 41 65 is_stmt 0
  79 005e B7070000 		lui	a5,%hi(.LC1)
  80 0062 03A40700 		lw	s0,%lo(.LC1)(a5)
  81 0066 83A44700 		lw	s1,%lo(.LC1+4)(a5)
  82              		.loc 1 41 74
  83 006a B7070000 		lui	a5,%hi(.LC2)
  84 006e 03A90700 		lw	s2,%lo(.LC2)(a5)
  85 0072 83A94700 		lw	s3,%lo(.LC2+4)(a5)
  86              	.LBE2:
  31:main.c        ****             break;
  87              		.loc 1 31 13
  88 0076 916B     		li	s7,16384
   8:main.c        ****   int lookUpTbl[16] = {1, 4, 7, 14, 2, 5, 8, 0, 3, 6, 9, 15, 10, 11, 12, 13};
  89              		.loc 1 8 23
  90 0078 FD5A     		li	s5,-1
   8:main.c        ****   int lookUpTbl[16] = {1, 4, 7, 14, 2, 5, 8, 0, 3, 6, 9, 15, 10, 11, 12, 13};
  91              		.loc 1 8 7
  92 007a 7D5A     		li	s4,-1
  93              	.LBB3:
  42:main.c        **** 
  43:main.c        ****             T1setPWMch2(dimStrength);
  44:main.c        **** 
  45:main.c        ****             // Resetar tiotal och ental
  46:main.c        ****             tenNumber = -1;
  47:main.c        ****             oneNumber = -1;
  48:main.c        ****             break;
  49:main.c        ****           }
  50:main.c        ****           else if (key == 11) // Knapp #
  51:main.c        ****           {
  52:main.c        ****             // Resetar tiotal och ental
  53:main.c        ****             tenNumber = -1;
  54:main.c        ****             oneNumber = -1;
  55:main.c        ****             break;
  56:main.c        ****           }
  57:main.c        ****           else if (key == 3 && tenNumber != -1 && oneNumber == -1) // Knapp * och inget ental finns
  58:main.c        ****           {
  59:main.c        ****             tenNumber = -1;
  60:main.c        ****             break;
  61:main.c        ****           }
  62:main.c        ****           else if (key == 3 && tenNumber != -1 && oneNumber != -1) // Knapp * och entalet finns
  63:main.c        ****           {
  64:main.c        ****             oneNumber = -1;
  65:main.c        ****             break;
  66:main.c        ****           }
  67:main.c        ****           else // En siffer knapp
GAS LISTING C:\Users\kasie\AppData\Local\Temp\cc0VfZfb.s 			page 4


  68:main.c        ****           {
  69:main.c        ****             for (int counter = 0; counter < 16; counter++)
  70:main.c        ****             {
  71:main.c        ****               // Hitta knappen som trycktes i lookUpTbl och sätt tiotal eller ental
  72:main.c        ****               if (counter == lookUpTbl[key])
  73:main.c        ****               {
  74:main.c        ****                 if (tenNumber == -1)
  94              		.loc 1 74 20
  95 007c 7D5B     		li	s6,-1
  96              	.LBE3:
  31:main.c        ****             break;
  97              		.loc 1 31 13
  98 007e 938B0BE8 		addi	s7,s7,-384
  99              	.LVL8:
 100              	.L3:
  19:main.c        ****   {
 101              		.loc 1 19 3 is_stmt 1
  21:main.c        ****     {                   // Manage periodic tasks
 102              		.loc 1 21 5
  21:main.c        ****     {                   // Manage periodic tasks
 103              		.loc 1 21 9 is_stmt 0
 104 0082 97000000 		call	t5expq
 104      E7800000 
 105              	.LVL9:
  21:main.c        ****     {                   // Manage periodic tasks
 106              		.loc 1 21 8
 107 008a 65DD     		beq	a0,zero,.L3
  23:main.c        **** 
 108              		.loc 1 23 7 is_stmt 1
 109 008c 97000000 		call	colset
 109      E7800000 
 110              	.LVL10:
 111 0094 97000000 		call	l88row
 111      E7800000 
 112              	.LVL11:
  25:main.c        ****       {
 113              		.loc 1 25 7
  25:main.c        ****       {
 114              		.loc 1 25 18 is_stmt 0
 115 009c 97000000 		call	keyscan
 115      E7800000 
 116              	.LVL12:
  25:main.c        ****       {
 117              		.loc 1 25 10
 118 00a4 E34F05FC 		blt	a0,zero,.L3
  27:main.c        ****         {
 119              		.loc 1 27 9 is_stmt 1
  29:main.c        ****           {
 120              		.loc 1 29 11
  29:main.c        ****           {
 121              		.loc 1 29 14 is_stmt 0
 122 00a8 B147     		li	a5,12
 123 00aa 6318F500 		bne	a0,a5,.L5
  31:main.c        ****             break;
 124              		.loc 1 31 13 is_stmt 1
 125 00ae 5E85     		mv	a0,s7
 126              	.LVL13:
GAS LISTING C:\Users\kasie\AppData\Local\Temp\cc0VfZfb.s 			page 5


 127              	.L18:
  36:main.c        ****             break;
 128              		.loc 1 36 13 is_stmt 0
 129 00b0 97000000 		call	T1setPWMch2
 129      E7800000 
 130              	.LVL14:
  37:main.c        ****           }
 131              		.loc 1 37 13 is_stmt 1
 132 00b8 E9B7     		j	.L3
 133              	.LVL15:
 134              	.L5:
  34:main.c        ****           {
 135              		.loc 1 34 16
  34:main.c        ****           {
 136              		.loc 1 34 19 is_stmt 0
 137 00ba B947     		li	a5,14
 138 00bc 6314F500 		bne	a0,a5,.L6
  36:main.c        ****             break;
 139              		.loc 1 36 13 is_stmt 1
 140 00c0 0145     		li	a0,0
 141              	.LVL16:
 142 00c2 FDB7     		j	.L18
 143              	.LVL17:
 144              	.L6:
  39:main.c        ****           {
 145              		.loc 1 39 16
  39:main.c        ****           {
 146              		.loc 1 39 19 is_stmt 0
 147 00c4 BD47     		li	a5,15
 148 00c6 6317F504 		bne	a0,a5,.L7
  39:main.c        ****           {
 149              		.loc 1 39 30 discriminator 1
 150 00ca 63016A07 		beq	s4,s6,.L8
 151              	.LBB4:
  41:main.c        **** 
 152              		.loc 1 41 13 is_stmt 1
 153              	.LVL18:
  43:main.c        **** 
 154              		.loc 1 43 13
  41:main.c        **** 
 155              		.loc 1 41 46 is_stmt 0
 156 00ce 2945     		li	a0,10
 157              	.LVL19:
 158 00d0 3305AA02 		mul	a0,s4,a0
  41:main.c        **** 
 159              		.loc 1 41 65
 160 00d4 5695     		add	a0,a0,s5
 161              	.LVL20:
 162 00d6 97000000 		call	__floatsidf
 162      E7800000 
 163              	.LVL21:
 164 00de 2286     		mv	a2,s0
 165 00e0 A686     		mv	a3,s1
 166 00e2 97000000 		call	__divdf3
 166      E7800000 
 167              	.LVL22:
  41:main.c        **** 
GAS LISTING C:\Users\kasie\AppData\Local\Temp\cc0VfZfb.s 			page 6


 168              		.loc 1 41 74
 169 00ea 4A86     		mv	a2,s2
 170 00ec CE86     		mv	a3,s3
 171 00ee 97000000 		call	__muldf3
 171      E7800000 
 172              	.LVL23:
  41:main.c        **** 
 173              		.loc 1 41 19
 174 00f6 97000000 		call	__truncdfsf2
 174      E7800000 
 175              	.LVL24:
  43:main.c        **** 
 176              		.loc 1 43 13
 177 00fe 97000000 		call	__fixsfsi
 177      E7800000 
 178              	.LVL25:
 179 0106 97000000 		call	T1setPWMch2
 179      E7800000 
 180              	.LVL26:
  46:main.c        ****             oneNumber = -1;
 181              		.loc 1 46 13 is_stmt 1
  47:main.c        ****             break;
 182              		.loc 1 47 13
  48:main.c        ****           }
 183              		.loc 1 48 13
 184              	.L11:
 185              	.LBE4:
  54:main.c        ****             break;
 186              		.loc 1 54 23 is_stmt 0
 187 010e FD5A     		li	s5,-1
 188              	.L12:
  53:main.c        ****             oneNumber = -1;
 189              		.loc 1 53 23
 190 0110 7D5A     		li	s4,-1
 191 0112 85BF     		j	.L3
 192              	.LVL27:
 193              	.L7:
  50:main.c        ****           {
 194              		.loc 1 50 16 is_stmt 1
  50:main.c        ****           {
 195              		.loc 1 50 19 is_stmt 0
 196 0114 AD47     		li	a5,11
 197 0116 E30CF5FE 		beq	a0,a5,.L11
  57:main.c        ****           {
 198              		.loc 1 57 16 is_stmt 1
  57:main.c        ****           {
 199              		.loc 1 57 19 is_stmt 0
 200 011a 8D47     		li	a5,3
 201 011c 6318F500 		bne	a0,a5,.L8
  57:main.c        ****           {
 202              		.loc 1 57 29 discriminator 1
 203 0120 63066A01 		beq	s4,s6,.L8
  57:main.c        ****           {
 204              		.loc 1 57 48 discriminator 2
 205 0124 E3866AFF 		beq	s5,s6,.L12
  64:main.c        ****             break;
 206              		.loc 1 64 23
GAS LISTING C:\Users\kasie\AppData\Local\Temp\cc0VfZfb.s 			page 7


 207 0128 FD5A     		li	s5,-1
 208              	.LVL28:
 209 012a A1BF     		j	.L3
 210              	.LVL29:
 211              	.L8:
 212              	.LBB5:
  72:main.c        ****               {
 213              		.loc 1 72 39
 214 012c 9C00     		addi	a5,sp,64
 215 012e 0A05     		slli	a0,a0,2
 216              	.LVL30:
 217 0130 3E95     		add	a0,a5,a0
 218 0132 032705FC 		lw	a4,-64(a0)
 219 0136 8147     		li	a5,0
  69:main.c        ****             {
 220              		.loc 1 69 13
 221 0138 C146     		li	a3,16
 222              	.L10:
 223              	.LVL31:
  72:main.c        ****               {
 224              		.loc 1 72 15 is_stmt 1
  72:main.c        ****               {
 225              		.loc 1 72 18 is_stmt 0
 226 013a 6317F700 		bne	a4,a5,.L9
 227              		.loc 1 74 17 is_stmt 1
 228              		.loc 1 74 20 is_stmt 0
 229 013e 63096A01 		beq	s4,s6,.L13
  75:main.c        ****                 {
  76:main.c        ****                   tenNumber = counter;
  77:main.c        ****                 }
  78:main.c        ****                 else if (oneNumber == -1)
 230              		.loc 1 78 22 is_stmt 1
 231              		.loc 1 78 25 is_stmt 0
 232 0142 63936A01 		bne	s5,s6,.L9
 233 0146 BA8A     		mv	s5,a4
 234              	.LVL32:
 235              	.L9:
  69:main.c        ****             {
 236              		.loc 1 69 56 discriminator 2
 237 0148 8507     		addi	a5,a5,1
 238              	.LVL33:
  69:main.c        ****             {
 239              		.loc 1 69 13 discriminator 2
 240 014a E398D7FE 		bne	a5,a3,.L10
 241 014e 15BF     		j	.L3
 242              	.L13:
 243 0150 3A8A     		mv	s4,a4
 244              	.LVL34:
 245 0152 DDBF     		j	.L9
 246              	.LBE5:
 247              		.cfi_endproc
 248              	.LFE2:
 250              		.section	.rodata
 251              		.align	2
 252              		.set	.LANCHOR0,. + 0
 253              	.LC0:
 254 0000 01000000 		.word	1
GAS LISTING C:\Users\kasie\AppData\Local\Temp\cc0VfZfb.s 			page 8


 255 0004 04000000 		.word	4
 256 0008 07000000 		.word	7
 257 000c 0E000000 		.word	14
 258 0010 02000000 		.word	2
 259 0014 05000000 		.word	5
 260 0018 08000000 		.word	8
 261 001c 00000000 		.word	0
 262 0020 03000000 		.word	3
 263 0024 06000000 		.word	6
 264 0028 09000000 		.word	9
 265 002c 0F000000 		.word	15
 266 0030 0A000000 		.word	10
 267 0034 0B000000 		.word	11
 268 0038 0C000000 		.word	12
 269 003c 0D000000 		.word	13
 270              		.section	.rodata.main.cst8,"aM",@progbits,8
 271              		.align	3
 272              	.LC1:
 273 0000 00000000 		.word	0
 274 0004 00005940 		.word	1079574528
 275              	.LC2:
 276 0008 00000000 		.word	0
 277 000c 0040CF40 		.word	1087324160
 278              		.text
 279              	.Letext0:
 280              		.file 2 "c:\\hukas\\code\\repositories\\toolchain-gd32v-v202-win\\compiler\\riscv64-unknown-elf\\i
 281              		.file 3 "c:\\hukas\\code\\repositories\\toolchain-gd32v-v202-win\\compiler\\riscv64-unknown-elf\\i
 282              		.file 4 "pwm.h"
 283              		.file 5 "drivers.h"
 284              		.file 6 "adc.h"
 285              		.file 7 "./../../firmware/GD32VF103_standard_peripheral/system_gd32vf103.h"
 286              		.file 8 "<built-in>"
GAS LISTING C:\Users\kasie\AppData\Local\Temp\cc0VfZfb.s 			page 9

