GAS LISTING C:\Users\kasie\AppData\Local\Temp\cchM6K43.s 			page 1


   1              		.file	"main.c"
   2              		.option nopic
   3              		.attribute arch, "rv32i2p0_m2p0_a2p0_c2p0"
   4              		.attribute unaligned_access, 0
   5              		.attribute stack_align, 16
   6              		.text
   7              	.Ltext0:
   8              		.cfi_sections	.debug_frame
   9              		.section	.text.startup.main,"ax",@progbits
  10              		.align	1
  11              		.globl	main
  13              	main:
  14              	.LFB2:
  15              		.file 1 "main.c"
   1:main.c        **** #include "gd32vf103.h"
   2:main.c        **** #include "drivers.h"
   3:main.c        **** #include "adc.h"
   4:main.c        **** #include "lcd.h"
   5:main.c        **** #include "usart.h"
   6:main.c        **** #define EI 1
   7:main.c        **** #define DI 0
   8:main.c        **** 
   9:main.c        **** int main(void)
  10:main.c        **** {
  16              		.loc 1 10 1
  17              		.cfi_startproc
  11:main.c        ****   int key, currentReceiveIndex = 0, currentSendIndex = 0, sendDataNow = 0, amountCharSent = 0, curr
  18              		.loc 1 11 3
  19              	.LVL0:
  12:main.c        ****   char transmitData[7];
  20              		.loc 1 12 3
  13:main.c        ****   int lookUpTbl[16] = {1, 4, 7, 14, 2, 5, 8, 0, 3, 6, 9, 15, 10, 11, 12, 13};
  21              		.loc 1 13 3
  14:main.c        **** 
  15:main.c        ****   t5omsi();                // Initialize timer5 1kHz
  22              		.loc 1 15 3
  10:main.c        ****   int key, currentReceiveIndex = 0, currentSendIndex = 0, sendDataNow = 0, amountCharSent = 0, curr
  23              		.loc 1 10 1 is_stmt 0
  24 0000 1971     		addi	sp,sp,-128
  25              	.LCFI0:
  26              		.cfi_def_cfa_offset 128
  27 0002 86DE     		sw	ra,124(sp)
  28 0004 A2DC     		sw	s0,120(sp)
  29 0006 A6DA     		sw	s1,116(sp)
  30 0008 CAD8     		sw	s2,112(sp)
  31 000a CED6     		sw	s3,108(sp)
  32 000c D2D4     		sw	s4,104(sp)
  33 000e D6D2     		sw	s5,100(sp)
  34 0010 DAD0     		sw	s6,96(sp)
  35 0012 DECE     		sw	s7,92(sp)
  36 0014 E2CC     		sw	s8,88(sp)
  37 0016 E6CA     		sw	s9,84(sp)
  38 0018 EEC6     		sw	s11,76(sp)
  39 001a EAC8     		sw	s10,80(sp)
  40              		.cfi_offset 1, -4
  41              		.cfi_offset 8, -8
  42              		.cfi_offset 9, -12
GAS LISTING C:\Users\kasie\AppData\Local\Temp\cchM6K43.s 			page 2


  43              		.cfi_offset 18, -16
  44              		.cfi_offset 19, -20
  45              		.cfi_offset 20, -24
  46              		.cfi_offset 21, -28
  47              		.cfi_offset 22, -32
  48              		.cfi_offset 23, -36
  49              		.cfi_offset 24, -40
  50              		.cfi_offset 25, -44
  51              		.cfi_offset 27, -52
  52              		.cfi_offset 26, -48
  53              		.loc 1 15 3
  54 001c 97000000 		call	t5omsi
  54      E7800000 
  55              	.LVL1:
  16:main.c        ****   colinit();               // Initialize column toolbox
  56              		.loc 1 16 3 is_stmt 1
  57 0024 97000000 		call	colinit
  57      E7800000 
  58              	.LVL2:
  17:main.c        ****   l88init();               // Initialize 8*8 led toolbox
  59              		.loc 1 17 3
  60 002c 97000000 		call	l88init
  60      E7800000 
  61              	.LVL3:
  18:main.c        ****   keyinit();               // Initialize keyboard toolbox
  62              		.loc 1 18 3
  63 0034 97000000 		call	keyinit
  63      E7800000 
  64              	.LVL4:
  19:main.c        ****   ADC3powerUpInit(1);      // Initialize ADC0, Ch3
  65              		.loc 1 19 3
  66 003c 0545     		li	a0,1
  67 003e 97000000 		call	ADC3powerUpInit
  67      E7800000 
  68              	.LVL5:
  20:main.c        ****   Lcd_SetType(LCD_NORMAL); // or use LCD_INVERTED!
  69              		.loc 1 20 3
  70 0046 0145     		li	a0,0
  71 0048 97000000 		call	Lcd_SetType
  71      E7800000 
  72              	.LVL6:
  21:main.c        ****   Lcd_Init();
  73              		.loc 1 21 3
  74 0050 97000000 		call	Lcd_Init
  74      E7800000 
  75              	.LVL7:
  22:main.c        ****   LCD_Clear(BLACK);
  76              		.loc 1 22 3
  77 0058 0145     		li	a0,0
  78 005a 97000000 		call	LCD_Clear
  78      E7800000 
  79              	.LVL8:
  23:main.c        ****   u0init(EI);                      // Initialize USART0 toolbox
  80              		.loc 1 23 3
  81 0062 0545     		li	a0,1
  82              	.LBB2:
  83              	.LBB3:
GAS LISTING C:\Users\kasie\AppData\Local\Temp\cchM6K43.s 			page 3


  24:main.c        ****   eclic_global_interrupt_enable(); // !!! INTERRUPT ENABLED !!!
  25:main.c        **** 
  26:main.c        ****   while (1)
  27:main.c        ****   {
  28:main.c        ****     LCD_WR_Queue(); // Manage LCD com queue!
  29:main.c        ****     u0_TX_Queue();  // Manage U(S)ART TX Queue!
  30:main.c        **** 
  31:main.c        ****     if (t5expq())
  32:main.c        ****     {
  33:main.c        ****       l88row(colset()); // ...8*8LED and Keyboard
  34:main.c        **** 
  35:main.c        ****       if (sendDataNow)
  36:main.c        ****       {
  37:main.c        ****         char currentChar = (int)transmitData[currentSendIndex];
  38:main.c        ****         usart_data_transmit(USART0, currentChar);
  84              		.loc 1 38 9 is_stmt 0
  85 0064 B7490140 		li	s3,1073823744
  86              	.LBE3:
  87              	.LBB4:
  39:main.c        ****         currentSendIndex++;
  40:main.c        **** 
  41:main.c        ****         if (currentSendIndex == amountCharSent) // If we have sent the whole word
  42:main.c        ****         {
  43:main.c        ****           sendDataNow = 0;
  44:main.c        ****           currentSendIndex = 0;
  45:main.c        ****           amountCharSent = 0;
  46:main.c        ****         }
  47:main.c        ****       }
  48:main.c        **** 
  49:main.c        ****       if ((key = keyscan()) >= 0)
  50:main.c        ****       {
  51:main.c        ****         if (key == 12) // A
  52:main.c        ****         {
  53:main.c        ****           adc_software_trigger_enable(ADC0, ADC_REGULAR_CHANNEL); // Trigger another ADC conversion
  54:main.c        **** 
  55:main.c        ****           if (adc_flag_get(ADC0, ADC_FLAG_EOC) == SET)
  56:main.c        ****           { // ...ADC done?
  57:main.c        ****             if (adc_flag_get(ADC0, ADC_FLAG_EOIC) == SET)
  58:main.c        ****             { //...ch3 or ch16?
  59:main.c        ****               int tmpr = adc_inserted_data_read(ADC0, ADC_INSERTED_CHANNEL_0);
  60:main.c        **** 
  61:main.c        ****               adc_flag_clear(ADC0, ADC_FLAG_EOC);
  62:main.c        ****               adc_flag_clear(ADC0, ADC_FLAG_EOIC);
  63:main.c        **** 
  64:main.c        ****               tmpr = ((0x680 - tmpr) / 5) + 25;
  65:main.c        **** 
  66:main.c        ****               int sign = '+'; // +
  67:main.c        ****               if (tmpr < 0)
  68:main.c        ****               {
  69:main.c        ****                 sign = '-';   // -
  70:main.c        ****                 tmpr = -tmpr; // Make tmpr positive for consistent handling
  71:main.c        ****               }
  72:main.c        **** 
  73:main.c        ****               int hundredsDigit = '0';
  74:main.c        ****               if (tmpr >= 100)
  75:main.c        ****               {
  76:main.c        ****                 hundredsDigit = '1';
GAS LISTING C:\Users\kasie\AppData\Local\Temp\cchM6K43.s 			page 4


  77:main.c        ****                 tmpr = tmpr % 100; // Extract the remaining two digits.
  78:main.c        ****               }
  79:main.c        **** 
  80:main.c        ****               char tensDigit, unitsDigit;
  81:main.c        **** 
  82:main.c        ****               tensDigit = (tmpr / 10) + '0';
  83:main.c        ****               unitsDigit = (tmpr % 10) + '0';
  84:main.c        **** 
  85:main.c        ****               char newDataTransmit[7];
  86:main.c        **** 
  87:main.c        ****               newDataTransmit[0] = 'I';
  88              		.loc 1 87 34
  89 0068 916A     		li	s5,16384
  90              	.LBE4:
  91              	.LBE2:
  23:main.c        ****   eclic_global_interrupt_enable(); // !!! INTERRUPT ENABLED !!!
  92              		.loc 1 23 3
  93 006a 97000000 		call	u0init
  93      E7800000 
  94              	.LVL9:
  24:main.c        ****   eclic_global_interrupt_enable(); // !!! INTERRUPT ENABLED !!!
  95              		.loc 1 24 3 is_stmt 1
  11:main.c        ****   char transmitData[7];
  96              		.loc 1 11 96 is_stmt 0
  97 0072 014A     		li	s4,0
  24:main.c        **** 
  98              		.loc 1 24 3
  99 0074 97000000 		call	eclic_global_interrupt_enable
  99      E7800000 
 100              	.LVL10:
  11:main.c        ****   char transmitData[7];
 101              		.loc 1 11 76
 102 007c 0144     		li	s0,0
  11:main.c        ****   char transmitData[7];
 103              		.loc 1 11 59
 104 007e 814D     		li	s11,0
  11:main.c        ****   char transmitData[7];
 105              		.loc 1 11 37
 106 0080 0149     		li	s2,0
  11:main.c        ****   char transmitData[7];
 107              		.loc 1 11 12
 108 0082 8144     		li	s1,0
 109              	.LBB24:
 110              	.LBB7:
  38:main.c        ****         currentSendIndex++;
 111              		.loc 1 38 9
 112 0084 93890980 		addi	s3,s3,-2048
 113              	.LBE7:
 114              	.LBB8:
  88:main.c        ****               newDataTransmit[1] = 'D';
  89:main.c        ****               newDataTransmit[2] = sign;
  90:main.c        ****               newDataTransmit[3] = hundredsDigit;
  91:main.c        ****               newDataTransmit[4] = tensDigit;
  92:main.c        ****               newDataTransmit[5] = unitsDigit;
  93:main.c        ****               newDataTransmit[6] = 10;
  94:main.c        **** 
  95:main.c        ****               amountCharSent = sizeof(newDataTransmit);
GAS LISTING C:\Users\kasie\AppData\Local\Temp\cchM6K43.s 			page 5


  96:main.c        **** 
  97:main.c        ****               for (int i = 0; i < amountCharSent; i++)
  98:main.c        ****               {
  99:main.c        ****                 transmitData[i] = newDataTransmit[i];
 100:main.c        ****               }
 101:main.c        **** 
 102:main.c        ****               sendDataNow = 1;
 103:main.c        ****             }
 104:main.c        ****           }
 105:main.c        ****         }
 106:main.c        ****         else if (key == 13) // B
 107:main.c        ****         {
 108:main.c        ****           char newDataTransmit[7] = "ID-000\n";
 109:main.c        ****           amountCharSent = sizeof(newDataTransmit);
 110:main.c        **** 
 111:main.c        ****           for (int i = 0; i < amountCharSent; i++)
 112:main.c        ****           {
 113:main.c        ****             transmitData[i] = newDataTransmit[i];
 114:main.c        ****           }
 115:main.c        **** 
 116:main.c        ****           sendDataNow = 1;
 117:main.c        ****         }
 118:main.c        ****         else if (key == 14) // C
 119:main.c        ****         {
 120:main.c        ****           char newDataTransmit[7] = "ID*000\n";
 115              		.loc 1 120 16
 116 0088 370B0000 		lui	s6,%hi(.LC2)
 117              	.LBE8:
 118              	.LBB10:
 108:main.c        ****           amountCharSent = sizeof(newDataTransmit);
 119              		.loc 1 108 16
 120 008c B70B0000 		lui	s7,%hi(.LC1)
 121              	.LBE10:
 122              	.LBB12:
  87:main.c        ****               newDataTransmit[1] = 'D';
 123              		.loc 1 87 34
 124 0090 938A9A44 		addi	s5,s5,1097
 125              	.LBE12:
 126              	.LBB13:
 127              	.LBB14:
 121:main.c        ****           amountCharSent = sizeof(newDataTransmit);
 122:main.c        **** 
 123:main.c        ****           for (int i = 0; i < amountCharSent; i++)
 124:main.c        ****           {
 125:main.c        ****             transmitData[i] = newDataTransmit[i];
 126:main.c        ****           }
 127:main.c        **** 
 128:main.c        ****           sendDataNow = 1;
 129:main.c        ****         }
 130:main.c        ****       }
 131:main.c        **** 
 132:main.c        ****       if (usart_flag_get(USART0, USART_FLAG_RBNE))
 133:main.c        ****       {
 134:main.c        ****         int receivedData = usart_data_receive(USART0);
 135:main.c        ****         int receivedDataArray[7];
 136:main.c        **** 
 137:main.c        ****         receivedDataArray[currentReceiveIndex] = receivedData;
GAS LISTING C:\Users\kasie\AppData\Local\Temp\cchM6K43.s 			page 6


 138:main.c        **** 
 139:main.c        ****         if (receivedData == 10)
 140:main.c        ****         {
 141:main.c        ****           if (receivedDataArray[0] == 'I' &&
 142:main.c        ****               receivedDataArray[1] == 'D' &&
 143:main.c        ****               (receivedDataArray[2] == '+' || receivedDataArray[2] == '-') &&
 144:main.c        ****               isdigit(receivedDataArray[3]) && // Check if it's a digit '0' to '9'
 145:main.c        ****               isdigit(receivedDataArray[4]) &&
 146:main.c        ****               isdigit(receivedDataArray[5]))
 147:main.c        ****           {
 148:main.c        ****             LCD_ShowStr(currentReceiveIndex * 10, currentLine * 15, " OK!", WHITE, TRANSPARENT);
 149:main.c        ****           }
 150:main.c        ****           else
 151:main.c        ****           {
 152:main.c        ****             LCD_ShowStr(currentReceiveIndex * 10, currentLine * 15, " ERR", WHITE, TRANSPARENT);
 128              		.loc 1 152 13
 129 0094 370C0000 		lui	s8,%hi(.LC4)
 148:main.c        ****           }
 130              		.loc 1 148 13
 131 0098 B70C0000 		lui	s9,%hi(.LC3)
 132              	.LVL11:
 133              	.L3:
 134              	.LBE14:
 135              	.LBE13:
 136              	.LBE24:
  26:main.c        ****   {
 137              		.loc 1 26 3 is_stmt 1
 138              	.LBB25:
  28:main.c        ****     u0_TX_Queue();  // Manage U(S)ART TX Queue!
 139              		.loc 1 28 5
 140 009c 97000000 		call	LCD_WR_Queue
 140      E7800000 
 141              	.LVL12:
  29:main.c        **** 
 142              		.loc 1 29 5
 143 00a4 97000000 		call	u0_TX_Queue
 143      E7800000 
 144              	.LVL13:
  31:main.c        ****     {
 145              		.loc 1 31 5
  31:main.c        ****     {
 146              		.loc 1 31 9 is_stmt 0
 147 00ac 97000000 		call	t5expq
 147      E7800000 
 148              	.LVL14:
  31:main.c        ****     {
 149              		.loc 1 31 8
 150 00b4 65D5     		beq	a0,zero,.L3
  33:main.c        **** 
 151              		.loc 1 33 7 is_stmt 1
 152 00b6 97000000 		call	colset
 152      E7800000 
 153              	.LVL15:
 154 00be 97000000 		call	l88row
 154      E7800000 
 155              	.LVL16:
  35:main.c        ****       {
GAS LISTING C:\Users\kasie\AppData\Local\Temp\cchM6K43.s 			page 7


 156              		.loc 1 35 7
  35:main.c        ****       {
 157              		.loc 1 35 10 is_stmt 0
 158 00c6 63810D02 		beq	s11,zero,.L4
 159              	.LBB17:
  37:main.c        ****         usart_data_transmit(USART0, currentChar);
 160              		.loc 1 37 9 is_stmt 1
 161              	.LVL17:
  38:main.c        ****         currentSendIndex++;
 162              		.loc 1 38 9
  37:main.c        ****         usart_data_transmit(USART0, currentChar);
 163              		.loc 1 37 14 is_stmt 0
 164 00ca 9C00     		addi	a5,sp,64
 165 00cc CA97     		add	a5,a5,s2
  38:main.c        ****         currentSendIndex++;
 166              		.loc 1 38 9
 167 00ce 83C5C7FD 		lbu	a1,-36(a5)
 168 00d2 4E85     		mv	a0,s3
  39:main.c        **** 
 169              		.loc 1 39 25
 170 00d4 0509     		addi	s2,s2,1
 171              	.LVL18:
  38:main.c        ****         currentSendIndex++;
 172              		.loc 1 38 9
 173 00d6 97000000 		call	usart_data_transmit
 173      E7800000 
 174              	.LVL19:
  39:main.c        **** 
 175              		.loc 1 39 9 is_stmt 1
  41:main.c        ****         {
 176              		.loc 1 41 9
  41:main.c        ****         {
 177              		.loc 1 41 12 is_stmt 0
 178 00de 63152401 		bne	s0,s2,.L4
  45:main.c        ****         }
 179              		.loc 1 45 26
 180 00e2 0144     		li	s0,0
 181              	.LVL20:
  43:main.c        ****           currentSendIndex = 0;
 182              		.loc 1 43 23
 183 00e4 814D     		li	s11,0
 184              	.LVL21:
  44:main.c        ****           amountCharSent = 0;
 185              		.loc 1 44 28
 186 00e6 0149     		li	s2,0
 187              	.LVL22:
 188              	.L4:
 189              	.LBE17:
  49:main.c        ****       {
 190              		.loc 1 49 7 is_stmt 1
  49:main.c        ****       {
 191              		.loc 1 49 18 is_stmt 0
 192 00e8 97000000 		call	keyscan
 192      E7800000 
 193              	.LVL23:
  49:main.c        ****       {
 194              		.loc 1 49 10
GAS LISTING C:\Users\kasie\AppData\Local\Temp\cchM6K43.s 			page 8


 195 00f0 6348050E 		blt	a0,zero,.L5
  51:main.c        ****         {
 196              		.loc 1 51 9 is_stmt 1
  51:main.c        ****         {
 197              		.loc 1 51 12 is_stmt 0
 198 00f4 B147     		li	a5,12
 199 00f6 631FF516 		bne	a0,a5,.L6
  53:main.c        **** 
 200              		.loc 1 53 11 is_stmt 1
 201 00fa 372D0140 		li	s10,1073815552
 202 00fe 8545     		li	a1,1
 203 0100 13050D40 		addi	a0,s10,1024
 204              	.LVL24:
 205 0104 97000000 		call	adc_software_trigger_enable
 205      E7800000 
 206              	.LVL25:
  55:main.c        ****           { // ...ADC done?
 207              		.loc 1 55 11
  55:main.c        ****           { // ...ADC done?
 208              		.loc 1 55 15 is_stmt 0
 209 010c 8945     		li	a1,2
 210 010e 13050D40 		addi	a0,s10,1024
 211 0112 97000000 		call	adc_flag_get
 211      E7800000 
 212              	.LVL26:
  55:main.c        ****           { // ...ADC done?
 213              		.loc 1 55 14
 214 011a 0547     		li	a4,1
 215 011c 6312E50C 		bne	a0,a4,.L5
 216 0120 2AC6     		sw	a0,12(sp)
  57:main.c        ****             { //...ch3 or ch16?
 217              		.loc 1 57 13 is_stmt 1
  57:main.c        ****             { //...ch3 or ch16?
 218              		.loc 1 57 17 is_stmt 0
 219 0122 9145     		li	a1,4
 220 0124 13050D40 		addi	a0,s10,1024
 221 0128 97000000 		call	adc_flag_get
 221      E7800000 
 222              	.LVL27:
  57:main.c        ****             { //...ch3 or ch16?
 223              		.loc 1 57 16
 224 0130 B247     		lw	a5,12(sp)
 225 0132 6317F50A 		bne	a0,a5,.L5
 226              	.LBB18:
  59:main.c        **** 
 227              		.loc 1 59 15 is_stmt 1
  59:main.c        **** 
 228              		.loc 1 59 26 is_stmt 0
 229 0136 8145     		li	a1,0
 230 0138 13050D40 		addi	a0,s10,1024
 231 013c 97000000 		call	adc_inserted_data_read
 231      E7800000 
 232              	.LVL28:
 233 0144 2A84     		mv	s0,a0
 234              	.LVL29:
  61:main.c        ****               adc_flag_clear(ADC0, ADC_FLAG_EOIC);
 235              		.loc 1 61 15 is_stmt 1
GAS LISTING C:\Users\kasie\AppData\Local\Temp\cchM6K43.s 			page 9


 236 0146 8945     		li	a1,2
 237 0148 13050D40 		addi	a0,s10,1024
 238 014c 97000000 		call	adc_flag_clear
 238      E7800000 
 239              	.LVL30:
  62:main.c        **** 
 240              		.loc 1 62 15
 241 0154 13050D40 		addi	a0,s10,1024
 242 0158 9145     		li	a1,4
 243 015a 97000000 		call	adc_flag_clear
 243      E7800000 
 244              	.LVL31:
  64:main.c        **** 
 245              		.loc 1 64 15
  64:main.c        **** 
 246              		.loc 1 64 30 is_stmt 0
 247 0162 13050068 		li	a0,1664
  64:main.c        **** 
 248              		.loc 1 64 38
 249 0166 9547     		li	a5,5
  64:main.c        **** 
 250              		.loc 1 64 30
 251 0168 018D     		sub	a0,a0,s0
  64:main.c        **** 
 252              		.loc 1 64 38
 253 016a 3345F502 		div	a0,a0,a5
  66:main.c        ****               if (tmpr < 0)
 254              		.loc 1 66 19
 255 016e 9306B002 		li	a3,43
  64:main.c        **** 
 256              		.loc 1 64 20
 257 0172 93079501 		addi	a5,a0,25
 258              	.LVL32:
  66:main.c        ****               if (tmpr < 0)
 259              		.loc 1 66 15 is_stmt 1
  67:main.c        ****               {
 260              		.loc 1 67 15
  67:main.c        ****               {
 261              		.loc 1 67 18 is_stmt 0
 262 0176 63D60700 		bge	a5,zero,.L7
  69:main.c        ****                 tmpr = -tmpr; // Make tmpr positive for consistent handling
 263              		.loc 1 69 17 is_stmt 1
 264              	.LVL33:
  70:main.c        ****               }
 265              		.loc 1 70 17
  70:main.c        ****               }
 266              		.loc 1 70 22 is_stmt 0
 267 017a 9D57     		li	a5,-25
 268              	.LVL34:
 269 017c 898F     		sub	a5,a5,a0
 270              	.LVL35:
  69:main.c        ****                 tmpr = -tmpr; // Make tmpr positive for consistent handling
 271              		.loc 1 69 22
 272 017e 9306D002 		li	a3,45
 273              	.LVL36:
 274              	.L7:
  73:main.c        ****               if (tmpr >= 100)
GAS LISTING C:\Users\kasie\AppData\Local\Temp\cchM6K43.s 			page 10


 275              		.loc 1 73 15 is_stmt 1
  74:main.c        ****               {
 276              		.loc 1 74 15
  74:main.c        ****               {
 277              		.loc 1 74 18 is_stmt 0
 278 0182 13063006 		li	a2,99
  73:main.c        ****               if (tmpr >= 100)
 279              		.loc 1 73 19
 280 0186 13070003 		li	a4,48
  74:main.c        ****               {
 281              		.loc 1 74 18
 282 018a 6358F600 		ble	a5,a2,.L8
  76:main.c        ****                 tmpr = tmpr % 100; // Extract the remaining two digits.
 283              		.loc 1 76 17 is_stmt 1
 284              	.LVL37:
  77:main.c        ****               }
 285              		.loc 1 77 17
  77:main.c        ****               }
 286              		.loc 1 77 22 is_stmt 0
 287 018e 13074006 		li	a4,100
 288 0192 B3E7E702 		rem	a5,a5,a4
 289              	.LVL38:
  76:main.c        ****                 tmpr = tmpr % 100; // Extract the remaining two digits.
 290              		.loc 1 76 31
 291 0196 13071003 		li	a4,49
 292              	.LVL39:
 293              	.L8:
  80:main.c        **** 
 294              		.loc 1 80 15 is_stmt 1
  82:main.c        ****               unitsDigit = (tmpr % 10) + '0';
 295              		.loc 1 82 15
  83:main.c        **** 
 296              		.loc 1 83 15
  85:main.c        **** 
 297              		.loc 1 85 15
  87:main.c        ****               newDataTransmit[1] = 'D';
 298              		.loc 1 87 15
  88:main.c        ****               newDataTransmit[2] = sign;
 299              		.loc 1 88 15
  90:main.c        ****               newDataTransmit[4] = tensDigit;
 300              		.loc 1 90 34 is_stmt 0
 301 019a A303E102 		sb	a4,39(sp)
  82:main.c        ****               unitsDigit = (tmpr % 10) + '0';
 302              		.loc 1 82 33
 303 019e 2947     		li	a4,10
 304              	.LVL40:
  89:main.c        ****               newDataTransmit[3] = hundredsDigit;
 305              		.loc 1 89 34
 306 01a0 2303D102 		sb	a3,38(sp)
  87:main.c        ****               newDataTransmit[1] = 'D';
 307              		.loc 1 87 34
 308 01a4 23125103 		sh	s5,36(sp)
  89:main.c        ****               newDataTransmit[3] = hundredsDigit;
 309              		.loc 1 89 15 is_stmt 1
  90:main.c        ****               newDataTransmit[4] = tensDigit;
 310              		.loc 1 90 15
  91:main.c        ****               newDataTransmit[5] = unitsDigit;
GAS LISTING C:\Users\kasie\AppData\Local\Temp\cchM6K43.s 			page 11


 311              		.loc 1 91 15
  93:main.c        **** 
 312              		.loc 1 93 34 is_stmt 0
 313 01a8 2305E102 		sb	a4,42(sp)
 314              	.LBB5:
  97:main.c        ****               {
 315              		.loc 1 97 24
 316 01ac 0144     		li	s0,0
 317              	.LBE5:
  82:main.c        ****               unitsDigit = (tmpr % 10) + '0';
 318              		.loc 1 82 33
 319 01ae B3C6E702 		div	a3,a5,a4
 320              	.LVL41:
  83:main.c        **** 
 321              		.loc 1 83 34
 322 01b2 B3E7E702 		rem	a5,a5,a4
 323              	.LVL42:
  82:main.c        ****               unitsDigit = (tmpr % 10) + '0';
 324              		.loc 1 82 25
 325 01b6 93860603 		addi	a3,a3,48
  91:main.c        ****               newDataTransmit[5] = unitsDigit;
 326              		.loc 1 91 34
 327 01ba 2304D102 		sb	a3,40(sp)
  92:main.c        ****               newDataTransmit[6] = 10;
 328              		.loc 1 92 15 is_stmt 1
  83:main.c        **** 
 329              		.loc 1 83 26 is_stmt 0
 330 01be 93870703 		addi	a5,a5,48
  92:main.c        ****               newDataTransmit[6] = 10;
 331              		.loc 1 92 34
 332 01c2 A304F102 		sb	a5,41(sp)
  93:main.c        **** 
 333              		.loc 1 93 15 is_stmt 1
  95:main.c        **** 
 334              		.loc 1 95 15
 335              	.LVL43:
  97:main.c        ****               {
 336              		.loc 1 97 15
 337              	.LBB6:
  97:main.c        ****               {
 338              		.loc 1 97 20
  97:main.c        ****               {
 339              		.loc 1 97 15 is_stmt 0
 340 01c6 9D47     		li	a5,7
 341              	.LVL44:
 342              	.L9:
  99:main.c        ****               }
 343              		.loc 1 99 17 is_stmt 1 discriminator 3
  99:main.c        ****               }
 344              		.loc 1 99 50 is_stmt 0 discriminator 3
 345 01c8 5410     		addi	a3,sp,36
 346 01ca A296     		add	a3,a3,s0
  99:main.c        ****               }
 347              		.loc 1 99 33 discriminator 3
 348 01cc 83C60600 		lbu	a3,0(a3)
 349 01d0 7808     		addi	a4,sp,28
 350 01d2 2297     		add	a4,a4,s0
GAS LISTING C:\Users\kasie\AppData\Local\Temp\cchM6K43.s 			page 12


 351 01d4 2300D700 		sb	a3,0(a4)
  97:main.c        ****               {
 352              		.loc 1 97 52 discriminator 3
 353 01d8 0504     		addi	s0,s0,1
 354              	.LVL45:
  97:main.c        ****               {
 355              		.loc 1 97 15 discriminator 3
 356 01da E317F4FE 		bne	s0,a5,.L9
 357              	.LVL46:
 358              	.L32:
 359              	.LBE6:
 360              	.LBE18:
 361              	.LBB19:
 128:main.c        ****         }
 362              		.loc 1 128 11 is_stmt 1
 128:main.c        ****         }
 363              		.loc 1 128 23 is_stmt 0
 364 01de 854D     		li	s11,1
 365              	.LVL47:
 366              	.L5:
 367              	.LBE19:
 132:main.c        ****       {
 368              		.loc 1 132 7 is_stmt 1
 132:main.c        ****       {
 369              		.loc 1 132 11 is_stmt 0
 370 01e0 9545     		li	a1,5
 371 01e2 4E85     		mv	a0,s3
 372 01e4 97000000 		call	usart_flag_get
 372      E7800000 
 373              	.LVL48:
 132:main.c        ****       {
 374              		.loc 1 132 10
 375 01ec E30805EA 		beq	a0,zero,.L3
 376 01f0 BD45     		li	a1,15
 377 01f2 B305BA02 		mul	a1,s4,a1
 378 01f6 2947     		li	a4,10
 379              	.LBB20:
 134:main.c        ****         int receivedDataArray[7];
 380              		.loc 1 134 28
 381 01f8 4E85     		mv	a0,s3
 382 01fa 338DE402 		mul	s10,s1,a4
 383 01fe 2EC6     		sw	a1,12(sp)
 134:main.c        ****         int receivedDataArray[7];
 384              		.loc 1 134 9 is_stmt 1
 134:main.c        ****         int receivedDataArray[7];
 385              		.loc 1 134 28 is_stmt 0
 386 0200 97000000 		call	usart_data_receive
 386      E7800000 
 387              	.LVL49:
 135:main.c        **** 
 388              		.loc 1 135 9 is_stmt 1
 137:main.c        **** 
 389              		.loc 1 137 9
 137:main.c        **** 
 390              		.loc 1 137 48 is_stmt 0
 391 0208 9800     		addi	a4,sp,64
 392 020a 93972400 		slli	a5,s1,2
GAS LISTING C:\Users\kasie\AppData\Local\Temp\cchM6K43.s 			page 13


 393 020e BA97     		add	a5,a4,a5
 394 0210 23A2A7FE 		sw	a0,-28(a5)
 139:main.c        ****         {
 395              		.loc 1 139 9 is_stmt 1
 139:main.c        ****         {
 396              		.loc 1 139 12 is_stmt 0
 397 0214 2947     		li	a4,10
 398 0216 B245     		lw	a1,12(sp)
 399 0218 6316E50C 		bne	a0,a4,.L14
 141:main.c        ****               receivedDataArray[1] == 'D' &&
 400              		.loc 1 141 11 is_stmt 1
 401              	.LBB15:
 141:main.c        ****               receivedDataArray[1] == 'D' &&
 402              		.loc 1 141 14 is_stmt 0
 403 021c 1257     		lw	a4,36(sp)
 404 021e 93079004 		li	a5,73
 405 0222 631BF70A 		bne	a4,a5,.L15
 141:main.c        ****               receivedDataArray[1] == 'D' &&
 406              		.loc 1 141 43 discriminator 1
 407 0226 2257     		lw	a4,40(sp)
 408 0228 93074004 		li	a5,68
 409 022c 6316F70A 		bne	a4,a5,.L15
 142:main.c        ****               (receivedDataArray[2] == '+' || receivedDataArray[2] == '-') &&
 410              		.loc 1 142 43
 411 0230 B257     		lw	a5,44(sp)
 412 0232 938757FD 		addi	a5,a5,-43
 413 0236 F59B     		andi	a5,a5,-3
 414 0238 C5E3     		bne	a5,zero,.L15
 143:main.c        ****               isdigit(receivedDataArray[3]) && // Check if it's a digit '0' to '9'
 415              		.loc 1 143 76 discriminator 1
 416 023a 4257     		lw	a4,48(sp)
 417 023c A547     		li	a5,9
 418 023e 130707FD 		addi	a4,a4,-48
 419 0242 63EBE708 		bgtu	a4,a5,.L15
 144:main.c        ****               isdigit(receivedDataArray[4]) &&
 420              		.loc 1 144 45
 421 0246 5257     		lw	a4,52(sp)
 422 0248 130707FD 		addi	a4,a4,-48
 423 024c 63E6E708 		bgtu	a4,a5,.L15
 145:main.c        ****               isdigit(receivedDataArray[5]))
 424              		.loc 1 145 45
 425 0250 6257     		lw	a4,56(sp)
 426 0252 130707FD 		addi	a4,a4,-48
 427 0256 63E1E708 		bgtu	a4,a5,.L15
 148:main.c        ****           }
 428              		.loc 1 148 13 is_stmt 1
 429 025a C166     		li	a3,65536
 430 025c 0547     		li	a4,1
 431 025e FD16     		addi	a3,a3,-1
 432 0260 13860C00 		addi	a2,s9,%lo(.LC3)
 433              	.L33:
 434              		.loc 1 152 13 is_stmt 0
 435 0264 6A85     		mv	a0,s10
 436              	.LVL50:
 437 0266 97000000 		call	LCD_ShowStr
 437      E7800000 
 438              	.LVL51:
GAS LISTING C:\Users\kasie\AppData\Local\Temp\cchM6K43.s 			page 14


 439              	.LBE15:
 153:main.c        ****           }
 154:main.c        **** 
 155:main.c        ****           currentReceiveIndex = 0;
 440              		.loc 1 155 11 is_stmt 1
 156:main.c        ****           currentLine++;
 441              		.loc 1 156 11
 442              		.loc 1 156 22 is_stmt 0
 443 026e 050A     		addi	s4,s4,1
 444              	.LVL52:
 155:main.c        ****           currentLine++;
 445              		.loc 1 155 31
 446 0270 8144     		li	s1,0
 447              	.LVL53:
 448 0272 2DB5     		j	.L3
 449              	.LVL54:
 450              	.L6:
 451              	.LBE20:
 106:main.c        ****         {
 452              		.loc 1 106 14 is_stmt 1
 106:main.c        ****         {
 453              		.loc 1 106 17 is_stmt 0
 454 0274 B547     		li	a5,13
 455 0276 6318F502 		bne	a0,a5,.L10
 456              	.LBB21:
 108:main.c        ****           amountCharSent = sizeof(newDataTransmit);
 457              		.loc 1 108 11 is_stmt 1
 108:main.c        ****           amountCharSent = sizeof(newDataTransmit);
 458              		.loc 1 108 16 is_stmt 0
 459 027a 1D46     		li	a2,7
 460 027c 93850B00 		addi	a1,s7,%lo(.LC1)
 461 0280 4810     		addi	a0,sp,36
 462              	.LVL55:
 463 0282 97000000 		call	memcpy
 463      E7800000 
 464              	.LVL56:
 109:main.c        **** 
 465              		.loc 1 109 11 is_stmt 1
 111:main.c        ****           {
 466              		.loc 1 111 11
 467              	.LBB11:
 111:main.c        ****           {
 468              		.loc 1 111 16
 111:main.c        ****           {
 469              		.loc 1 111 20 is_stmt 0
 470 028a 0144     		li	s0,0
 111:main.c        ****           {
 471              		.loc 1 111 11
 472 028c 9D47     		li	a5,7
 473              	.LVL57:
 474              	.L11:
 113:main.c        ****           }
 475              		.loc 1 113 13 is_stmt 1 discriminator 3
 113:main.c        ****           }
 476              		.loc 1 113 46 is_stmt 0 discriminator 3
 477 028e 5410     		addi	a3,sp,36
 478 0290 A296     		add	a3,a3,s0
GAS LISTING C:\Users\kasie\AppData\Local\Temp\cchM6K43.s 			page 15


 113:main.c        ****           }
 479              		.loc 1 113 29 discriminator 3
 480 0292 83C60600 		lbu	a3,0(a3)
 481 0296 7808     		addi	a4,sp,28
 482 0298 2297     		add	a4,a4,s0
 483 029a 2300D700 		sb	a3,0(a4)
 111:main.c        ****           {
 484              		.loc 1 111 48 discriminator 3
 485 029e 0504     		addi	s0,s0,1
 486              	.LVL58:
 111:main.c        ****           {
 487              		.loc 1 111 11 discriminator 3
 488 02a0 E317F4FE 		bne	s0,a5,.L11
 489 02a4 2DBF     		j	.L32
 490              	.LVL59:
 491              	.L10:
 492              	.LBE11:
 493              	.LBE21:
 118:main.c        ****         {
 494              		.loc 1 118 14 is_stmt 1
 118:main.c        ****         {
 495              		.loc 1 118 17 is_stmt 0
 496 02a6 B947     		li	a5,14
 497 02a8 E31CF5F2 		bne	a0,a5,.L5
 498              	.LBB22:
 120:main.c        ****           amountCharSent = sizeof(newDataTransmit);
 499              		.loc 1 120 11 is_stmt 1
 120:main.c        ****           amountCharSent = sizeof(newDataTransmit);
 500              		.loc 1 120 16 is_stmt 0
 501 02ac 1D46     		li	a2,7
 502 02ae 93050B00 		addi	a1,s6,%lo(.LC2)
 503 02b2 4810     		addi	a0,sp,36
 504              	.LVL60:
 505 02b4 97000000 		call	memcpy
 505      E7800000 
 506              	.LVL61:
 121:main.c        **** 
 507              		.loc 1 121 11 is_stmt 1
 123:main.c        ****           {
 508              		.loc 1 123 11
 509              	.LBB9:
 123:main.c        ****           {
 510              		.loc 1 123 16
 123:main.c        ****           {
 511              		.loc 1 123 20 is_stmt 0
 512 02bc 0144     		li	s0,0
 123:main.c        ****           {
 513              		.loc 1 123 11
 514 02be 9D47     		li	a5,7
 515              	.LVL62:
 516              	.L12:
 125:main.c        ****           }
 517              		.loc 1 125 13 is_stmt 1 discriminator 3
 125:main.c        ****           }
 518              		.loc 1 125 46 is_stmt 0 discriminator 3
 519 02c0 5410     		addi	a3,sp,36
 520 02c2 A296     		add	a3,a3,s0
GAS LISTING C:\Users\kasie\AppData\Local\Temp\cchM6K43.s 			page 16


 125:main.c        ****           }
 521              		.loc 1 125 29 discriminator 3
 522 02c4 83C60600 		lbu	a3,0(a3)
 523 02c8 7808     		addi	a4,sp,28
 524 02ca 2297     		add	a4,a4,s0
 525 02cc 2300D700 		sb	a3,0(a4)
 123:main.c        ****           {
 526              		.loc 1 123 48 discriminator 3
 527 02d0 0504     		addi	s0,s0,1
 528              	.LVL63:
 123:main.c        ****           {
 529              		.loc 1 123 11 discriminator 3
 530 02d2 E317F4FE 		bne	s0,a5,.L12
 531 02d6 21B7     		j	.L32
 532              	.LVL64:
 533              	.L15:
 534              	.LBE9:
 535              	.LBE22:
 536              	.LBB23:
 537              	.LBB16:
 152:main.c        ****           }
 538              		.loc 1 152 13 is_stmt 1
 539 02d8 C166     		li	a3,65536
 540 02da 0547     		li	a4,1
 541 02dc FD16     		addi	a3,a3,-1
 542 02de 13060C00 		addi	a2,s8,%lo(.LC4)
 543 02e2 49B7     		j	.L33
 544              	.L14:
 545              	.LBE16:
 157:main.c        ****         }
 158:main.c        ****         else
 159:main.c        ****         {
 160:main.c        ****           LCD_ShowChar(currentReceiveIndex * 10, currentLine * 15, receivedData, TRANSPARENT, WHITE
 546              		.loc 1 160 11
 547 02e4 4167     		li	a4,65536
 548 02e6 1376F50F 		andi	a2,a0,0xff
 549 02ea 7D17     		addi	a4,a4,-1
 550 02ec 8546     		li	a3,1
 551 02ee 6A85     		mv	a0,s10
 552              	.LVL65:
 553 02f0 97000000 		call	LCD_ShowChar
 553      E7800000 
 554              	.LVL66:
 161:main.c        ****           currentReceiveIndex++;
 555              		.loc 1 161 11
 556              		.loc 1 161 30 is_stmt 0
 557 02f8 8504     		addi	s1,s1,1
 558              	.LVL67:
 559 02fa 4DB3     		j	.L3
 560              	.LBE23:
 561              	.LBE25:
 562              		.cfi_endproc
 563              	.LFE2:
 565              		.section	.rodata
 566              		.align	2
 567              	.LC2:
 568 0000 49442A30 		.string	"ID*000\n"
GAS LISTING C:\Users\kasie\AppData\Local\Temp\cchM6K43.s 			page 17


 568      30300A00 
 569              	.LC1:
 570 0008 49442D30 		.string	"ID-000\n"
 570      30300A00 
 571              		.section	.rodata.main.str1.4,"aMS",@progbits,1
 572              		.align	2
 573              	.LC3:
 574 0000 204F4B21 		.string	" OK!"
 574      00
 575 0005 000000   		.zero	3
 576              	.LC4:
 577 0008 20455252 		.string	" ERR"
 577      00
 578              		.text
 579              	.Letext0:
 580              		.file 2 "c:\\hukas\\code\\repositories\\toolchain-gd32v-v202-win\\compiler\\riscv64-unknown-elf\\i
 581              		.file 3 "c:\\hukas\\code\\repositories\\toolchain-gd32v-v202-win\\compiler\\riscv64-unknown-elf\\i
 582              		.file 4 "./../../firmware/GD32VF103_standard_peripheral/gd32vf103.h"
 583              		.file 5 "./../../firmware/GD32VF103_standard_peripheral/Include/gd32vf103_usart.h"
 584              		.file 6 "c:\\hukas\\code\\repositories\\toolchain-gd32v-v202-win\\compiler\\lib\\gcc\\riscv64-unkn
 585              		.file 7 "c:\\hukas\\code\\repositories\\toolchain-gd32v-v202-win\\compiler\\riscv64-unknown-elf\\i
 586              		.file 8 "c:\\hukas\\code\\repositories\\toolchain-gd32v-v202-win\\compiler\\riscv64-unknown-elf\\i
 587              		.file 9 "c:\\hukas\\code\\repositories\\toolchain-gd32v-v202-win\\compiler\\riscv64-unknown-elf\\i
 588              		.file 10 "./../../firmware/GD32VF103_standard_peripheral/system_gd32vf103.h"
 589              		.file 11 "c:\\hukas\\code\\repositories\\toolchain-gd32v-v202-win\\compiler\\riscv64-unknown-elf\\
 590              		.file 12 "lcd.h"
 591              		.file 13 "./../../firmware/GD32VF103_standard_peripheral/Include/gd32vf103_adc.h"
 592              		.file 14 "drivers.h"
 593              		.file 15 "adc.h"
 594              		.file 16 "usart.h"
 595              		.file 17 "./../../firmware/GD32VF103_standard_peripheral/Include/gd32vf103_eclic.h"
 596              		.file 18 "<built-in>"
GAS LISTING C:\Users\kasie\AppData\Local\Temp\cchM6K43.s 			page 18


DEFINED SYMBOLS
                            *ABS*:0000000000000000 main.c
C:\Users\kasie\AppData\Local\Temp\cchM6K43.s:13     .text.startup.main:0000000000000000 main
C:\Users\kasie\AppData\Local\Temp\cchM6K43.s:17     .text.startup.main:0000000000000000 .L0 
C:\Users\kasie\AppData\Local\Temp\cchM6K43.s:18     .text.startup.main:0000000000000000 .L0 
C:\Users\kasie\AppData\Local\Temp\cchM6K43.s:20     .text.startup.main:0000000000000000 .L0 
C:\Users\kasie\AppData\Local\Temp\cchM6K43.s:21     .text.startup.main:0000000000000000 .L0 
C:\Users\kasie\AppData\Local\Temp\cchM6K43.s:22     .text.startup.main:0000000000000000 .L0 
C:\Users\kasie\AppData\Local\Temp\cchM6K43.s:23     .text.startup.main:0000000000000000 .L0 
C:\Users\kasie\AppData\Local\Temp\cchM6K43.s:24     .text.startup.main:0000000000000000 .L0 
C:\Users\kasie\AppData\Local\Temp\cchM6K43.s:26     .text.startup.main:0000000000000002 .L0 
C:\Users\kasie\AppData\Local\Temp\cchM6K43.s:40     .text.startup.main:000000000000001c .L0 
C:\Users\kasie\AppData\Local\Temp\cchM6K43.s:41     .text.startup.main:000000000000001c .L0 
C:\Users\kasie\AppData\Local\Temp\cchM6K43.s:42     .text.startup.main:000000000000001c .L0 
C:\Users\kasie\AppData\Local\Temp\cchM6K43.s:43     .text.startup.main:000000000000001c .L0 
C:\Users\kasie\AppData\Local\Temp\cchM6K43.s:44     .text.startup.main:000000000000001c .L0 
C:\Users\kasie\AppData\Local\Temp\cchM6K43.s:45     .text.startup.main:000000000000001c .L0 
C:\Users\kasie\AppData\Local\Temp\cchM6K43.s:46     .text.startup.main:000000000000001c .L0 
C:\Users\kasie\AppData\Local\Temp\cchM6K43.s:47     .text.startup.main:000000000000001c .L0 
C:\Users\kasie\AppData\Local\Temp\cchM6K43.s:48     .text.startup.main:000000000000001c .L0 
C:\Users\kasie\AppData\Local\Temp\cchM6K43.s:49     .text.startup.main:000000000000001c .L0 
C:\Users\kasie\AppData\Local\Temp\cchM6K43.s:50     .text.startup.main:000000000000001c .L0 
C:\Users\kasie\AppData\Local\Temp\cchM6K43.s:51     .text.startup.main:000000000000001c .L0 
C:\Users\kasie\AppData\Local\Temp\cchM6K43.s:52     .text.startup.main:000000000000001c .L0 
C:\Users\kasie\AppData\Local\Temp\cchM6K43.s:54     .text.startup.main:000000000000001c .L0 
C:\Users\kasie\AppData\Local\Temp\cchM6K43.s:57     .text.startup.main:0000000000000024 .L0 
C:\Users\kasie\AppData\Local\Temp\cchM6K43.s:60     .text.startup.main:000000000000002c .L0 
C:\Users\kasie\AppData\Local\Temp\cchM6K43.s:63     .text.startup.main:0000000000000034 .L0 
C:\Users\kasie\AppData\Local\Temp\cchM6K43.s:66     .text.startup.main:000000000000003c .L0 
C:\Users\kasie\AppData\Local\Temp\cchM6K43.s:70     .text.startup.main:0000000000000046 .L0 
C:\Users\kasie\AppData\Local\Temp\cchM6K43.s:74     .text.startup.main:0000000000000050 .L0 
C:\Users\kasie\AppData\Local\Temp\cchM6K43.s:77     .text.startup.main:0000000000000058 .L0 
C:\Users\kasie\AppData\Local\Temp\cchM6K43.s:81     .text.startup.main:0000000000000062 .L0 
C:\Users\kasie\AppData\Local\Temp\cchM6K43.s:85     .text.startup.main:0000000000000064 .L0 
C:\Users\kasie\AppData\Local\Temp\cchM6K43.s:89     .text.startup.main:0000000000000068 .L0 
C:\Users\kasie\AppData\Local\Temp\cchM6K43.s:93     .text.startup.main:000000000000006a .L0 
C:\Users\kasie\AppData\Local\Temp\cchM6K43.s:96     .text.startup.main:0000000000000072 .L0 
C:\Users\kasie\AppData\Local\Temp\cchM6K43.s:97     .text.startup.main:0000000000000072 .L0 
C:\Users\kasie\AppData\Local\Temp\cchM6K43.s:99     .text.startup.main:0000000000000074 .L0 
C:\Users\kasie\AppData\Local\Temp\cchM6K43.s:102    .text.startup.main:000000000000007c .L0 
C:\Users\kasie\AppData\Local\Temp\cchM6K43.s:104    .text.startup.main:000000000000007e .L0 
C:\Users\kasie\AppData\Local\Temp\cchM6K43.s:106    .text.startup.main:0000000000000080 .L0 
C:\Users\kasie\AppData\Local\Temp\cchM6K43.s:108    .text.startup.main:0000000000000082 .L0 
C:\Users\kasie\AppData\Local\Temp\cchM6K43.s:112    .text.startup.main:0000000000000084 .L0 
C:\Users\kasie\AppData\Local\Temp\cchM6K43.s:116    .text.startup.main:0000000000000088 .L0 
C:\Users\kasie\AppData\Local\Temp\cchM6K43.s:120    .text.startup.main:000000000000008c .L0 
C:\Users\kasie\AppData\Local\Temp\cchM6K43.s:124    .text.startup.main:0000000000000090 .L0 
C:\Users\kasie\AppData\Local\Temp\cchM6K43.s:129    .text.startup.main:0000000000000094 .L0 
C:\Users\kasie\AppData\Local\Temp\cchM6K43.s:131    .text.startup.main:0000000000000098 .L0 
C:\Users\kasie\AppData\Local\Temp\cchM6K43.s:139    .text.startup.main:000000000000009c .L0 
C:\Users\kasie\AppData\Local\Temp\cchM6K43.s:140    .text.startup.main:000000000000009c .L0 
C:\Users\kasie\AppData\Local\Temp\cchM6K43.s:143    .text.startup.main:00000000000000a4 .L0 
C:\Users\kasie\AppData\Local\Temp\cchM6K43.s:146    .text.startup.main:00000000000000ac .L0 
C:\Users\kasie\AppData\Local\Temp\cchM6K43.s:147    .text.startup.main:00000000000000ac .L0 
C:\Users\kasie\AppData\Local\Temp\cchM6K43.s:150    .text.startup.main:00000000000000b4 .L0 
C:\Users\kasie\AppData\Local\Temp\cchM6K43.s:152    .text.startup.main:00000000000000b6 .L0 
C:\Users\kasie\AppData\Local\Temp\cchM6K43.s:157    .text.startup.main:00000000000000c6 .L0 
GAS LISTING C:\Users\kasie\AppData\Local\Temp\cchM6K43.s 			page 19


C:\Users\kasie\AppData\Local\Temp\cchM6K43.s:158    .text.startup.main:00000000000000c6 .L0 
C:\Users\kasie\AppData\Local\Temp\cchM6K43.s:162    .text.startup.main:00000000000000ca .L0 
C:\Users\kasie\AppData\Local\Temp\cchM6K43.s:163    .text.startup.main:00000000000000ca .L0 
C:\Users\kasie\AppData\Local\Temp\cchM6K43.s:164    .text.startup.main:00000000000000ca .L0 
C:\Users\kasie\AppData\Local\Temp\cchM6K43.s:167    .text.startup.main:00000000000000ce .L0 
C:\Users\kasie\AppData\Local\Temp\cchM6K43.s:170    .text.startup.main:00000000000000d4 .L0 
C:\Users\kasie\AppData\Local\Temp\cchM6K43.s:173    .text.startup.main:00000000000000d6 .L0 
C:\Users\kasie\AppData\Local\Temp\cchM6K43.s:176    .text.startup.main:00000000000000de .L0 
C:\Users\kasie\AppData\Local\Temp\cchM6K43.s:177    .text.startup.main:00000000000000de .L0 
C:\Users\kasie\AppData\Local\Temp\cchM6K43.s:178    .text.startup.main:00000000000000de .L0 
C:\Users\kasie\AppData\Local\Temp\cchM6K43.s:180    .text.startup.main:00000000000000e2 .L0 
C:\Users\kasie\AppData\Local\Temp\cchM6K43.s:183    .text.startup.main:00000000000000e4 .L0 
C:\Users\kasie\AppData\Local\Temp\cchM6K43.s:186    .text.startup.main:00000000000000e6 .L0 
C:\Users\kasie\AppData\Local\Temp\cchM6K43.s:191    .text.startup.main:00000000000000e8 .L0 
C:\Users\kasie\AppData\Local\Temp\cchM6K43.s:192    .text.startup.main:00000000000000e8 .L0 
C:\Users\kasie\AppData\Local\Temp\cchM6K43.s:195    .text.startup.main:00000000000000f0 .L0 
C:\Users\kasie\AppData\Local\Temp\cchM6K43.s:197    .text.startup.main:00000000000000f4 .L0 
C:\Users\kasie\AppData\Local\Temp\cchM6K43.s:198    .text.startup.main:00000000000000f4 .L0 
C:\Users\kasie\AppData\Local\Temp\cchM6K43.s:201    .text.startup.main:00000000000000fa .L0 
C:\Users\kasie\AppData\Local\Temp\cchM6K43.s:208    .text.startup.main:000000000000010c .L0 
C:\Users\kasie\AppData\Local\Temp\cchM6K43.s:209    .text.startup.main:000000000000010c .L0 
C:\Users\kasie\AppData\Local\Temp\cchM6K43.s:214    .text.startup.main:000000000000011a .L0 
C:\Users\kasie\AppData\Local\Temp\cchM6K43.s:218    .text.startup.main:0000000000000122 .L0 
C:\Users\kasie\AppData\Local\Temp\cchM6K43.s:219    .text.startup.main:0000000000000122 .L0 
C:\Users\kasie\AppData\Local\Temp\cchM6K43.s:224    .text.startup.main:0000000000000130 .L0 
C:\Users\kasie\AppData\Local\Temp\cchM6K43.s:228    .text.startup.main:0000000000000136 .L0 
C:\Users\kasie\AppData\Local\Temp\cchM6K43.s:229    .text.startup.main:0000000000000136 .L0 
C:\Users\kasie\AppData\Local\Temp\cchM6K43.s:236    .text.startup.main:0000000000000146 .L0 
C:\Users\kasie\AppData\Local\Temp\cchM6K43.s:241    .text.startup.main:0000000000000154 .L0 
C:\Users\kasie\AppData\Local\Temp\cchM6K43.s:246    .text.startup.main:0000000000000162 .L0 
C:\Users\kasie\AppData\Local\Temp\cchM6K43.s:247    .text.startup.main:0000000000000162 .L0 
C:\Users\kasie\AppData\Local\Temp\cchM6K43.s:249    .text.startup.main:0000000000000166 .L0 
C:\Users\kasie\AppData\Local\Temp\cchM6K43.s:251    .text.startup.main:0000000000000168 .L0 
C:\Users\kasie\AppData\Local\Temp\cchM6K43.s:253    .text.startup.main:000000000000016a .L0 
C:\Users\kasie\AppData\Local\Temp\cchM6K43.s:255    .text.startup.main:000000000000016e .L0 
C:\Users\kasie\AppData\Local\Temp\cchM6K43.s:257    .text.startup.main:0000000000000172 .L0 
C:\Users\kasie\AppData\Local\Temp\cchM6K43.s:260    .text.startup.main:0000000000000176 .L0 
C:\Users\kasie\AppData\Local\Temp\cchM6K43.s:261    .text.startup.main:0000000000000176 .L0 
C:\Users\kasie\AppData\Local\Temp\cchM6K43.s:262    .text.startup.main:0000000000000176 .L0 
C:\Users\kasie\AppData\Local\Temp\cchM6K43.s:265    .text.startup.main:000000000000017a .L0 
C:\Users\kasie\AppData\Local\Temp\cchM6K43.s:266    .text.startup.main:000000000000017a .L0 
C:\Users\kasie\AppData\Local\Temp\cchM6K43.s:267    .text.startup.main:000000000000017a .L0 
C:\Users\kasie\AppData\Local\Temp\cchM6K43.s:272    .text.startup.main:000000000000017e .L0 
C:\Users\kasie\AppData\Local\Temp\cchM6K43.s:276    .text.startup.main:0000000000000182 .L0 
C:\Users\kasie\AppData\Local\Temp\cchM6K43.s:277    .text.startup.main:0000000000000182 .L0 
C:\Users\kasie\AppData\Local\Temp\cchM6K43.s:278    .text.startup.main:0000000000000182 .L0 
C:\Users\kasie\AppData\Local\Temp\cchM6K43.s:280    .text.startup.main:0000000000000186 .L0 
C:\Users\kasie\AppData\Local\Temp\cchM6K43.s:282    .text.startup.main:000000000000018a .L0 
C:\Users\kasie\AppData\Local\Temp\cchM6K43.s:285    .text.startup.main:000000000000018e .L0 
C:\Users\kasie\AppData\Local\Temp\cchM6K43.s:286    .text.startup.main:000000000000018e .L0 
C:\Users\kasie\AppData\Local\Temp\cchM6K43.s:287    .text.startup.main:000000000000018e .L0 
C:\Users\kasie\AppData\Local\Temp\cchM6K43.s:291    .text.startup.main:0000000000000196 .L0 
C:\Users\kasie\AppData\Local\Temp\cchM6K43.s:295    .text.startup.main:000000000000019a .L0 
C:\Users\kasie\AppData\Local\Temp\cchM6K43.s:296    .text.startup.main:000000000000019a .L0 
C:\Users\kasie\AppData\Local\Temp\cchM6K43.s:297    .text.startup.main:000000000000019a .L0 
C:\Users\kasie\AppData\Local\Temp\cchM6K43.s:298    .text.startup.main:000000000000019a .L0 
C:\Users\kasie\AppData\Local\Temp\cchM6K43.s:299    .text.startup.main:000000000000019a .L0 
GAS LISTING C:\Users\kasie\AppData\Local\Temp\cchM6K43.s 			page 20


C:\Users\kasie\AppData\Local\Temp\cchM6K43.s:300    .text.startup.main:000000000000019a .L0 
C:\Users\kasie\AppData\Local\Temp\cchM6K43.s:301    .text.startup.main:000000000000019a .L0 
C:\Users\kasie\AppData\Local\Temp\cchM6K43.s:303    .text.startup.main:000000000000019e .L0 
C:\Users\kasie\AppData\Local\Temp\cchM6K43.s:306    .text.startup.main:00000000000001a0 .L0 
C:\Users\kasie\AppData\Local\Temp\cchM6K43.s:308    .text.startup.main:00000000000001a4 .L0 
C:\Users\kasie\AppData\Local\Temp\cchM6K43.s:310    .text.startup.main:00000000000001a8 .L0 
C:\Users\kasie\AppData\Local\Temp\cchM6K43.s:311    .text.startup.main:00000000000001a8 .L0 
C:\Users\kasie\AppData\Local\Temp\cchM6K43.s:312    .text.startup.main:00000000000001a8 .L0 
C:\Users\kasie\AppData\Local\Temp\cchM6K43.s:313    .text.startup.main:00000000000001a8 .L0 
C:\Users\kasie\AppData\Local\Temp\cchM6K43.s:316    .text.startup.main:00000000000001ac .L0 
C:\Users\kasie\AppData\Local\Temp\cchM6K43.s:319    .text.startup.main:00000000000001ae .L0 
C:\Users\kasie\AppData\Local\Temp\cchM6K43.s:322    .text.startup.main:00000000000001b2 .L0 
C:\Users\kasie\AppData\Local\Temp\cchM6K43.s:325    .text.startup.main:00000000000001b6 .L0 
C:\Users\kasie\AppData\Local\Temp\cchM6K43.s:327    .text.startup.main:00000000000001ba .L0 
C:\Users\kasie\AppData\Local\Temp\cchM6K43.s:329    .text.startup.main:00000000000001be .L0 
C:\Users\kasie\AppData\Local\Temp\cchM6K43.s:330    .text.startup.main:00000000000001be .L0 
C:\Users\kasie\AppData\Local\Temp\cchM6K43.s:332    .text.startup.main:00000000000001c2 .L0 
C:\Users\kasie\AppData\Local\Temp\cchM6K43.s:334    .text.startup.main:00000000000001c6 .L0 
C:\Users\kasie\AppData\Local\Temp\cchM6K43.s:336    .text.startup.main:00000000000001c6 .L0 
C:\Users\kasie\AppData\Local\Temp\cchM6K43.s:338    .text.startup.main:00000000000001c6 .L0 
C:\Users\kasie\AppData\Local\Temp\cchM6K43.s:339    .text.startup.main:00000000000001c6 .L0 
C:\Users\kasie\AppData\Local\Temp\cchM6K43.s:340    .text.startup.main:00000000000001c6 .L0 
C:\Users\kasie\AppData\Local\Temp\cchM6K43.s:344    .text.startup.main:00000000000001c8 .L0 
C:\Users\kasie\AppData\Local\Temp\cchM6K43.s:345    .text.startup.main:00000000000001c8 .L0 
C:\Users\kasie\AppData\Local\Temp\cchM6K43.s:348    .text.startup.main:00000000000001cc .L0 
C:\Users\kasie\AppData\Local\Temp\cchM6K43.s:353    .text.startup.main:00000000000001d8 .L0 
C:\Users\kasie\AppData\Local\Temp\cchM6K43.s:356    .text.startup.main:00000000000001da .L0 
C:\Users\kasie\AppData\Local\Temp\cchM6K43.s:363    .text.startup.main:00000000000001de .L0 
C:\Users\kasie\AppData\Local\Temp\cchM6K43.s:364    .text.startup.main:00000000000001de .L0 
C:\Users\kasie\AppData\Local\Temp\cchM6K43.s:369    .text.startup.main:00000000000001e0 .L0 
C:\Users\kasie\AppData\Local\Temp\cchM6K43.s:370    .text.startup.main:00000000000001e0 .L0 
C:\Users\kasie\AppData\Local\Temp\cchM6K43.s:375    .text.startup.main:00000000000001ec .L0 
C:\Users\kasie\AppData\Local\Temp\cchM6K43.s:381    .text.startup.main:00000000000001f8 .L0 
C:\Users\kasie\AppData\Local\Temp\cchM6K43.s:385    .text.startup.main:0000000000000200 .L0 
C:\Users\kasie\AppData\Local\Temp\cchM6K43.s:386    .text.startup.main:0000000000000200 .L0 
C:\Users\kasie\AppData\Local\Temp\cchM6K43.s:389    .text.startup.main:0000000000000208 .L0 
C:\Users\kasie\AppData\Local\Temp\cchM6K43.s:390    .text.startup.main:0000000000000208 .L0 
C:\Users\kasie\AppData\Local\Temp\cchM6K43.s:391    .text.startup.main:0000000000000208 .L0 
C:\Users\kasie\AppData\Local\Temp\cchM6K43.s:396    .text.startup.main:0000000000000214 .L0 
C:\Users\kasie\AppData\Local\Temp\cchM6K43.s:397    .text.startup.main:0000000000000214 .L0 
C:\Users\kasie\AppData\Local\Temp\cchM6K43.s:402    .text.startup.main:000000000000021c .L0 
C:\Users\kasie\AppData\Local\Temp\cchM6K43.s:403    .text.startup.main:000000000000021c .L0 
C:\Users\kasie\AppData\Local\Temp\cchM6K43.s:407    .text.startup.main:0000000000000226 .L0 
C:\Users\kasie\AppData\Local\Temp\cchM6K43.s:411    .text.startup.main:0000000000000230 .L0 
C:\Users\kasie\AppData\Local\Temp\cchM6K43.s:416    .text.startup.main:000000000000023a .L0 
C:\Users\kasie\AppData\Local\Temp\cchM6K43.s:421    .text.startup.main:0000000000000246 .L0 
C:\Users\kasie\AppData\Local\Temp\cchM6K43.s:425    .text.startup.main:0000000000000250 .L0 
C:\Users\kasie\AppData\Local\Temp\cchM6K43.s:429    .text.startup.main:000000000000025a .L0 
C:\Users\kasie\AppData\Local\Temp\cchM6K43.s:435    .text.startup.main:0000000000000264 .L0 
C:\Users\kasie\AppData\Local\Temp\cchM6K43.s:441    .text.startup.main:000000000000026e .L0 
C:\Users\kasie\AppData\Local\Temp\cchM6K43.s:442    .text.startup.main:000000000000026e .L0 
C:\Users\kasie\AppData\Local\Temp\cchM6K43.s:443    .text.startup.main:000000000000026e .L0 
C:\Users\kasie\AppData\Local\Temp\cchM6K43.s:446    .text.startup.main:0000000000000270 .L0 
C:\Users\kasie\AppData\Local\Temp\cchM6K43.s:453    .text.startup.main:0000000000000274 .L0 
C:\Users\kasie\AppData\Local\Temp\cchM6K43.s:454    .text.startup.main:0000000000000274 .L0 
C:\Users\kasie\AppData\Local\Temp\cchM6K43.s:458    .text.startup.main:000000000000027a .L0 
C:\Users\kasie\AppData\Local\Temp\cchM6K43.s:459    .text.startup.main:000000000000027a .L0 
GAS LISTING C:\Users\kasie\AppData\Local\Temp\cchM6K43.s 			page 21


C:\Users\kasie\AppData\Local\Temp\cchM6K43.s:466    .text.startup.main:000000000000028a .L0 
C:\Users\kasie\AppData\Local\Temp\cchM6K43.s:468    .text.startup.main:000000000000028a .L0 
C:\Users\kasie\AppData\Local\Temp\cchM6K43.s:469    .text.startup.main:000000000000028a .L0 
C:\Users\kasie\AppData\Local\Temp\cchM6K43.s:470    .text.startup.main:000000000000028a .L0 
C:\Users\kasie\AppData\Local\Temp\cchM6K43.s:472    .text.startup.main:000000000000028c .L0 
C:\Users\kasie\AppData\Local\Temp\cchM6K43.s:476    .text.startup.main:000000000000028e .L0 
C:\Users\kasie\AppData\Local\Temp\cchM6K43.s:477    .text.startup.main:000000000000028e .L0 
C:\Users\kasie\AppData\Local\Temp\cchM6K43.s:480    .text.startup.main:0000000000000292 .L0 
C:\Users\kasie\AppData\Local\Temp\cchM6K43.s:485    .text.startup.main:000000000000029e .L0 
C:\Users\kasie\AppData\Local\Temp\cchM6K43.s:488    .text.startup.main:00000000000002a0 .L0 
C:\Users\kasie\AppData\Local\Temp\cchM6K43.s:495    .text.startup.main:00000000000002a6 .L0 
C:\Users\kasie\AppData\Local\Temp\cchM6K43.s:496    .text.startup.main:00000000000002a6 .L0 
C:\Users\kasie\AppData\Local\Temp\cchM6K43.s:500    .text.startup.main:00000000000002ac .L0 
C:\Users\kasie\AppData\Local\Temp\cchM6K43.s:501    .text.startup.main:00000000000002ac .L0 
C:\Users\kasie\AppData\Local\Temp\cchM6K43.s:508    .text.startup.main:00000000000002bc .L0 
C:\Users\kasie\AppData\Local\Temp\cchM6K43.s:510    .text.startup.main:00000000000002bc .L0 
C:\Users\kasie\AppData\Local\Temp\cchM6K43.s:511    .text.startup.main:00000000000002bc .L0 
C:\Users\kasie\AppData\Local\Temp\cchM6K43.s:512    .text.startup.main:00000000000002bc .L0 
C:\Users\kasie\AppData\Local\Temp\cchM6K43.s:514    .text.startup.main:00000000000002be .L0 
C:\Users\kasie\AppData\Local\Temp\cchM6K43.s:518    .text.startup.main:00000000000002c0 .L0 
C:\Users\kasie\AppData\Local\Temp\cchM6K43.s:519    .text.startup.main:00000000000002c0 .L0 
C:\Users\kasie\AppData\Local\Temp\cchM6K43.s:522    .text.startup.main:00000000000002c4 .L0 
C:\Users\kasie\AppData\Local\Temp\cchM6K43.s:527    .text.startup.main:00000000000002d0 .L0 
C:\Users\kasie\AppData\Local\Temp\cchM6K43.s:530    .text.startup.main:00000000000002d2 .L0 
C:\Users\kasie\AppData\Local\Temp\cchM6K43.s:539    .text.startup.main:00000000000002d8 .L0 
C:\Users\kasie\AppData\Local\Temp\cchM6K43.s:547    .text.startup.main:00000000000002e4 .L0 
C:\Users\kasie\AppData\Local\Temp\cchM6K43.s:556    .text.startup.main:00000000000002f8 .L0 
C:\Users\kasie\AppData\Local\Temp\cchM6K43.s:557    .text.startup.main:00000000000002f8 .L0 
C:\Users\kasie\AppData\Local\Temp\cchM6K43.s:562    .text.startup.main:00000000000002fc .L0 
C:\Users\kasie\AppData\Local\Temp\cchM6K43.s:565    .text.startup.main:00000000000002fc .L0 
                     .debug_frame:0000000000000000 .L0 
C:\Users\kasie\AppData\Local\Temp\cchM6K43.s:567    .rodata:0000000000000000 .LC2
C:\Users\kasie\AppData\Local\Temp\cchM6K43.s:569    .rodata:0000000000000008 .LC1
C:\Users\kasie\AppData\Local\Temp\cchM6K43.s:576    .rodata.main.str1.4:0000000000000008 .LC4
C:\Users\kasie\AppData\Local\Temp\cchM6K43.s:573    .rodata.main.str1.4:0000000000000000 .LC3
C:\Users\kasie\AppData\Local\Temp\cchM6K43.s:133    .text.startup.main:000000000000009c .L3
C:\Users\kasie\AppData\Local\Temp\cchM6K43.s:188    .text.startup.main:00000000000000e8 .L4
C:\Users\kasie\AppData\Local\Temp\cchM6K43.s:366    .text.startup.main:00000000000001e0 .L5
C:\Users\kasie\AppData\Local\Temp\cchM6K43.s:450    .text.startup.main:0000000000000274 .L6
C:\Users\kasie\AppData\Local\Temp\cchM6K43.s:274    .text.startup.main:0000000000000182 .L7
C:\Users\kasie\AppData\Local\Temp\cchM6K43.s:293    .text.startup.main:000000000000019a .L8
C:\Users\kasie\AppData\Local\Temp\cchM6K43.s:342    .text.startup.main:00000000000001c8 .L9
C:\Users\kasie\AppData\Local\Temp\cchM6K43.s:544    .text.startup.main:00000000000002e4 .L14
C:\Users\kasie\AppData\Local\Temp\cchM6K43.s:533    .text.startup.main:00000000000002d8 .L15
C:\Users\kasie\AppData\Local\Temp\cchM6K43.s:491    .text.startup.main:00000000000002a6 .L10
C:\Users\kasie\AppData\Local\Temp\cchM6K43.s:474    .text.startup.main:000000000000028e .L11
C:\Users\kasie\AppData\Local\Temp\cchM6K43.s:358    .text.startup.main:00000000000001de .L32
C:\Users\kasie\AppData\Local\Temp\cchM6K43.s:516    .text.startup.main:00000000000002c0 .L12
C:\Users\kasie\AppData\Local\Temp\cchM6K43.s:433    .text.startup.main:0000000000000264 .L33
C:\Users\kasie\AppData\Local\Temp\cchM6K43.s:2842   .debug_abbrev:0000000000000000 .Ldebug_abbrev0
C:\Users\kasie\AppData\Local\Temp\cchM6K43.s:4301   .debug_str:0000000000000684 .LASF178
C:\Users\kasie\AppData\Local\Temp\cchM6K43.s:4149   .debug_str:0000000000000359 .LASF179
C:\Users\kasie\AppData\Local\Temp\cchM6K43.s:4125   .debug_str:0000000000000295 .LASF180
C:\Users\kasie\AppData\Local\Temp\cchM6K43.s:3929   .debug_ranges:0000000000000000 .Ldebug_ranges0
C:\Users\kasie\AppData\Local\Temp\cchM6K43.s:3995   .debug_line:0000000000000000 .Ldebug_line0
C:\Users\kasie\AppData\Local\Temp\cchM6K43.s:4285   .debug_str:000000000000062d .LASF0
C:\Users\kasie\AppData\Local\Temp\cchM6K43.s:4039   .debug_str:00000000000000ec .LASF1
GAS LISTING C:\Users\kasie\AppData\Local\Temp\cchM6K43.s 			page 22


C:\Users\kasie\AppData\Local\Temp\cchM6K43.s:4007   .debug_str:0000000000000037 .LASF6
C:\Users\kasie\AppData\Local\Temp\cchM6K43.s:4215   .debug_str:00000000000004cf .LASF2
C:\Users\kasie\AppData\Local\Temp\cchM6K43.s:4287   .debug_str:000000000000063a .LASF3
C:\Users\kasie\AppData\Local\Temp\cchM6K43.s:4307   .debug_str:0000000000000720 .LASF4
C:\Users\kasie\AppData\Local\Temp\cchM6K43.s:4011   .debug_str:000000000000004a .LASF5
C:\Users\kasie\AppData\Local\Temp\cchM6K43.s:4089   .debug_str:00000000000001e3 .LASF7
C:\Users\kasie\AppData\Local\Temp\cchM6K43.s:4119   .debug_str:0000000000000271 .LASF8
C:\Users\kasie\AppData\Local\Temp\cchM6K43.s:4075   .debug_str:000000000000019c .LASF9
C:\Users\kasie\AppData\Local\Temp\cchM6K43.s:4047   .debug_str:0000000000000116 .LASF10
C:\Users\kasie\AppData\Local\Temp\cchM6K43.s:4291   .debug_str:000000000000064b .LASF11
C:\Users\kasie\AppData\Local\Temp\cchM6K43.s:4319   .debug_str:0000000000000767 .LASF12
C:\Users\kasie\AppData\Local\Temp\cchM6K43.s:4113   .debug_str:0000000000000251 .LASF133
C:\Users\kasie\AppData\Local\Temp\cchM6K43.s:4207   .debug_str:00000000000004ab .LASF13
C:\Users\kasie\AppData\Local\Temp\cchM6K43.s:4025   .debug_str:00000000000000a2 .LASF14
C:\Users\kasie\AppData\Local\Temp\cchM6K43.s:4325   .debug_str:000000000000078d .LASF15
C:\Users\kasie\AppData\Local\Temp\cchM6K43.s:4153   .debug_str:000000000000037c .LASF16
C:\Users\kasie\AppData\Local\Temp\cchM6K43.s:4281   .debug_str:0000000000000619 .LASF17
C:\Users\kasie\AppData\Local\Temp\cchM6K43.s:4213   .debug_str:00000000000004bf .LASF18
C:\Users\kasie\AppData\Local\Temp\cchM6K43.s:3999   .debug_str:000000000000000c .LASF19
C:\Users\kasie\AppData\Local\Temp\cchM6K43.s:4173   .debug_str:00000000000003ef .LASF20
C:\Users\kasie\AppData\Local\Temp\cchM6K43.s:4019   .debug_str:000000000000007e .LASF21
C:\Users\kasie\AppData\Local\Temp\cchM6K43.s:4191   .debug_str:0000000000000449 .LASF22
C:\Users\kasie\AppData\Local\Temp\cchM6K43.s:4231   .debug_str:0000000000000515 .LASF23
C:\Users\kasie\AppData\Local\Temp\cchM6K43.s:4273   .debug_str:00000000000005ee .LASF24
C:\Users\kasie\AppData\Local\Temp\cchM6K43.s:4193   .debug_str:0000000000000459 .LASF25
C:\Users\kasie\AppData\Local\Temp\cchM6K43.s:4035   .debug_str:00000000000000de .LASF26
C:\Users\kasie\AppData\Local\Temp\cchM6K43.s:4271   .debug_str:00000000000005e6 .LASF27
C:\Users\kasie\AppData\Local\Temp\cchM6K43.s:4333   .debug_str:00000000000007b4 .LASF28
C:\Users\kasie\AppData\Local\Temp\cchM6K43.s:4145   .debug_str:000000000000034c .LASF29
C:\Users\kasie\AppData\Local\Temp\cchM6K43.s:4111   .debug_str:000000000000024a .LASF30
C:\Users\kasie\AppData\Local\Temp\cchM6K43.s:4263   .debug_str:00000000000005c6 .LASF31
C:\Users\kasie\AppData\Local\Temp\cchM6K43.s:4265   .debug_str:00000000000005ce .LASF32
C:\Users\kasie\AppData\Local\Temp\cchM6K43.s:4203   .debug_str:000000000000048e .LASF33
C:\Users\kasie\AppData\Local\Temp\cchM6K43.s:4313   .debug_str:000000000000073f .LASF34
C:\Users\kasie\AppData\Local\Temp\cchM6K43.s:4205   .debug_str:0000000000000499 .LASF35
C:\Users\kasie\AppData\Local\Temp\cchM6K43.s:4221   .debug_str:00000000000004ec .LASF36
C:\Users\kasie\AppData\Local\Temp\cchM6K43.s:4099   .debug_str:0000000000000215 .LASF41
C:\Users\kasie\AppData\Local\Temp\cchM6K43.s:4295   .debug_str:000000000000065f .LASF37
C:\Users\kasie\AppData\Local\Temp\cchM6K43.s:4255   .debug_str:00000000000005a0 .LASF38
C:\Users\kasie\AppData\Local\Temp\cchM6K43.s:4091   .debug_str:00000000000001ee .LASF39
C:\Users\kasie\AppData\Local\Temp\cchM6K43.s:4329   .debug_str:00000000000007a9 .LASF40
C:\Users\kasie\AppData\Local\Temp\cchM6K43.s:4109   .debug_str:0000000000000245 .LASF42
C:\Users\kasie\AppData\Local\Temp\cchM6K43.s:4031   .debug_str:00000000000000ce .LASF43
C:\Users\kasie\AppData\Local\Temp\cchM6K43.s:4353   .debug_str:0000000000000821 .LASF44
C:\Users\kasie\AppData\Local\Temp\cchM6K43.s:4051   .debug_str:0000000000000135 .LASF45
C:\Users\kasie\AppData\Local\Temp\cchM6K43.s:4367   .debug_str:0000000000000864 .LASF46
C:\Users\kasie\AppData\Local\Temp\cchM6K43.s:4181   .debug_str:0000000000000416 .LASF47
C:\Users\kasie\AppData\Local\Temp\cchM6K43.s:4165   .debug_str:00000000000003c3 .LASF48
C:\Users\kasie\AppData\Local\Temp\cchM6K43.s:4269   .debug_str:00000000000005dc .LASF49
C:\Users\kasie\AppData\Local\Temp\cchM6K43.s:4223   .debug_str:00000000000004f5 .LASF50
C:\Users\kasie\AppData\Local\Temp\cchM6K43.s:4349   .debug_str:0000000000000807 .LASF51
C:\Users\kasie\AppData\Local\Temp\cchM6K43.s:4055   .debug_str:0000000000000144 .LASF52
C:\Users\kasie\AppData\Local\Temp\cchM6K43.s:4001   .debug_str:000000000000001c .LASF53
C:\Users\kasie\AppData\Local\Temp\cchM6K43.s:3997   .debug_str:0000000000000000 .LASF54
C:\Users\kasie\AppData\Local\Temp\cchM6K43.s:4303   .debug_str:000000000000070c .LASF55
C:\Users\kasie\AppData\Local\Temp\cchM6K43.s:4071   .debug_str:000000000000018d .LASF56
C:\Users\kasie\AppData\Local\Temp\cchM6K43.s:4183   .debug_str:000000000000041f .LASF57
GAS LISTING C:\Users\kasie\AppData\Local\Temp\cchM6K43.s 			page 23


C:\Users\kasie\AppData\Local\Temp\cchM6K43.s:4245   .debug_str:0000000000000562 .LASF58
C:\Users\kasie\AppData\Local\Temp\cchM6K43.s:4087   .debug_str:00000000000001de .LASF59
C:\Users\kasie\AppData\Local\Temp\cchM6K43.s:4225   .debug_str:00000000000004ff .LASF60
C:\Users\kasie\AppData\Local\Temp\cchM6K43.s:4211   .debug_str:00000000000004b9 .LASF61
C:\Users\kasie\AppData\Local\Temp\cchM6K43.s:4283   .debug_str:0000000000000627 .LASF62
C:\Users\kasie\AppData\Local\Temp\cchM6K43.s:4235   .debug_str:000000000000052c .LASF63
C:\Users\kasie\AppData\Local\Temp\cchM6K43.s:4069   .debug_str:0000000000000186 .LASF64
C:\Users\kasie\AppData\Local\Temp\cchM6K43.s:4121   .debug_str:0000000000000283 .LASF65
C:\Users\kasie\AppData\Local\Temp\cchM6K43.s:4021   .debug_str:000000000000008e .LASF66
C:\Users\kasie\AppData\Local\Temp\cchM6K43.s:4059   .debug_str:000000000000015a .LASF67
C:\Users\kasie\AppData\Local\Temp\cchM6K43.s:4105   .debug_str:0000000000000235 .LASF68
C:\Users\kasie\AppData\Local\Temp\cchM6K43.s:4163   .debug_str:00000000000003bc .LASF69
C:\Users\kasie\AppData\Local\Temp\cchM6K43.s:4267   .debug_str:00000000000005d6 .LASF70
C:\Users\kasie\AppData\Local\Temp\cchM6K43.s:4037   .debug_str:00000000000000e5 .LASF71
C:\Users\kasie\AppData\Local\Temp\cchM6K43.s:4043   .debug_str:0000000000000108 .LASF72
C:\Users\kasie\AppData\Local\Temp\cchM6K43.s:4345   .debug_str:00000000000007f9 .LASF73
C:\Users\kasie\AppData\Local\Temp\cchM6K43.s:4103   .debug_str:000000000000022c .LASF74
C:\Users\kasie\AppData\Local\Temp\cchM6K43.s:4079   .debug_str:00000000000001b2 .LASF75
C:\Users\kasie\AppData\Local\Temp\cchM6K43.s:4127   .debug_str:00000000000002da .LASF76
C:\Users\kasie\AppData\Local\Temp\cchM6K43.s:4157   .debug_str:000000000000039c .LASF77
C:\Users\kasie\AppData\Local\Temp\cchM6K43.s:4237   .debug_str:0000000000000534 .LASF78
C:\Users\kasie\AppData\Local\Temp\cchM6K43.s:4227   .debug_str:0000000000000506 .LASF79
C:\Users\kasie\AppData\Local\Temp\cchM6K43.s:4257   .debug_str:00000000000005a8 .LASF80
C:\Users\kasie\AppData\Local\Temp\cchM6K43.s:4275   .debug_str:00000000000005fa .LASF81
C:\Users\kasie\AppData\Local\Temp\cchM6K43.s:4073   .debug_str:0000000000000195 .LASF82
C:\Users\kasie\AppData\Local\Temp\cchM6K43.s:4115   .debug_str:0000000000000261 .LASF83
C:\Users\kasie\AppData\Local\Temp\cchM6K43.s:4097   .debug_str:000000000000020d .LASF84
C:\Users\kasie\AppData\Local\Temp\cchM6K43.s:4243   .debug_str:000000000000055d .LASF85
C:\Users\kasie\AppData\Local\Temp\cchM6K43.s:4005   .debug_str:000000000000002c .LASF86
C:\Users\kasie\AppData\Local\Temp\cchM6K43.s:4253   .debug_str:0000000000000587 .LASF87
C:\Users\kasie\AppData\Local\Temp\cchM6K43.s:4249   .debug_str:0000000000000575 .LASF88
C:\Users\kasie\AppData\Local\Temp\cchM6K43.s:4189   .debug_str:000000000000043e .LASF89
C:\Users\kasie\AppData\Local\Temp\cchM6K43.s:4251   .debug_str:000000000000057d .LASF90
C:\Users\kasie\AppData\Local\Temp\cchM6K43.s:4143   .debug_str:0000000000000344 .LASF91
C:\Users\kasie\AppData\Local\Temp\cchM6K43.s:4107   .debug_str:000000000000023b .LASF92
C:\Users\kasie\AppData\Local\Temp\cchM6K43.s:4363   .debug_str:000000000000085a .LASF93
C:\Users\kasie\AppData\Local\Temp\cchM6K43.s:4199   .debug_str:0000000000000477 .LASF94
C:\Users\kasie\AppData\Local\Temp\cchM6K43.s:4117   .debug_str:0000000000000269 .LASF95
C:\Users\kasie\AppData\Local\Temp\cchM6K43.s:4077   .debug_str:00000000000001aa .LASF96
C:\Users\kasie\AppData\Local\Temp\cchM6K43.s:4067   .debug_str:0000000000000181 .LASF97
C:\Users\kasie\AppData\Local\Temp\cchM6K43.s:4009   .debug_str:0000000000000041 .LASF98
C:\Users\kasie\AppData\Local\Temp\cchM6K43.s:4339   .debug_str:00000000000007cc .LASF99
C:\Users\kasie\AppData\Local\Temp\cchM6K43.s:4061   .debug_str:0000000000000162 .LASF100
C:\Users\kasie\AppData\Local\Temp\cchM6K43.s:4053   .debug_str:000000000000013f .LASF101
C:\Users\kasie\AppData\Local\Temp\cchM6K43.s:4277   .debug_str:0000000000000601 .LASF102
C:\Users\kasie\AppData\Local\Temp\cchM6K43.s:4233   .debug_str:0000000000000525 .LASF103
C:\Users\kasie\AppData\Local\Temp\cchM6K43.s:4331   .debug_str:00000000000007ae .LASF104
C:\Users\kasie\AppData\Local\Temp\cchM6K43.s:4129   .debug_str:00000000000002e0 .LASF105
C:\Users\kasie\AppData\Local\Temp\cchM6K43.s:4217   .debug_str:00000000000004dd .LASF106
C:\Users\kasie\AppData\Local\Temp\cchM6K43.s:4003   .debug_str:0000000000000024 .LASF107
C:\Users\kasie\AppData\Local\Temp\cchM6K43.s:4259   .debug_str:00000000000005af .LASF108
C:\Users\kasie\AppData\Local\Temp\cchM6K43.s:4161   .debug_str:00000000000003b6 .LASF109
C:\Users\kasie\AppData\Local\Temp\cchM6K43.s:4309   .debug_str:0000000000000733 .LASF110
C:\Users\kasie\AppData\Local\Temp\cchM6K43.s:4321   .debug_str:0000000000000770 .LASF111
C:\Users\kasie\AppData\Local\Temp\cchM6K43.s:4297   .debug_str:0000000000000665 .LASF112
C:\Users\kasie\AppData\Local\Temp\cchM6K43.s:4139   .debug_str:0000000000000328 .LASF113
C:\Users\kasie\AppData\Local\Temp\cchM6K43.s:4351   .debug_str:0000000000000812 .LASF114
GAS LISTING C:\Users\kasie\AppData\Local\Temp\cchM6K43.s 			page 24


C:\Users\kasie\AppData\Local\Temp\cchM6K43.s:4101   .debug_str:000000000000021d .LASF115
C:\Users\kasie\AppData\Local\Temp\cchM6K43.s:4133   .debug_str:0000000000000305 .LASF116
C:\Users\kasie\AppData\Local\Temp\cchM6K43.s:4179   .debug_str:0000000000000411 .LASF117
C:\Users\kasie\AppData\Local\Temp\cchM6K43.s:4187   .debug_str:0000000000000431 .LASF118
C:\Users\kasie\AppData\Local\Temp\cchM6K43.s:4361   .debug_str:000000000000084c .LASF119
C:\Users\kasie\AppData\Local\Temp\cchM6K43.s:4029   .debug_str:00000000000000c0 .LASF120
C:\Users\kasie\AppData\Local\Temp\cchM6K43.s:4335   .debug_str:00000000000007bd .LASF121
C:\Users\kasie\AppData\Local\Temp\cchM6K43.s:4137   .debug_str:000000000000031c .LASF122
C:\Users\kasie\AppData\Local\Temp\cchM6K43.s:4315   .debug_str:0000000000000747 .LASF123
C:\Users\kasie\AppData\Local\Temp\cchM6K43.s:4083   .debug_str:00000000000001cb .LASF124
C:\Users\kasie\AppData\Local\Temp\cchM6K43.s:4027   .debug_str:00000000000000b1 .LASF125
C:\Users\kasie\AppData\Local\Temp\cchM6K43.s:4081   .debug_str:00000000000001ba .LASF126
C:\Users\kasie\AppData\Local\Temp\cchM6K43.s:4013   .debug_str:0000000000000053 .LASF127
C:\Users\kasie\AppData\Local\Temp\cchM6K43.s:4015   .debug_str:0000000000000062 .LASF128
C:\Users\kasie\AppData\Local\Temp\cchM6K43.s:4219   .debug_str:00000000000004e3 .LASF129
C:\Users\kasie\AppData\Local\Temp\cchM6K43.s:4177   .debug_str:000000000000040a .LASF130
C:\Users\kasie\AppData\Local\Temp\cchM6K43.s:4169   .debug_str:00000000000003da .LASF131
C:\Users\kasie\AppData\Local\Temp\cchM6K43.s:4347   .debug_str:00000000000007ff .LASF132
C:\Users\kasie\AppData\Local\Temp\cchM6K43.s:4023   .debug_str:0000000000000097 .LASF181
C:\Users\kasie\AppData\Local\Temp\cchM6K43.s:4095   .debug_str:0000000000000201 .LASF134
C:\Users\kasie\AppData\Local\Temp\cchM6K43.s:4317   .debug_str:0000000000000754 .LASF135
C:\Users\kasie\AppData\Local\Temp\cchM6K43.s:4185   .debug_str:0000000000000427 .LASF136
C:\Users\kasie\AppData\Local\Temp\cchM6K43.s:4017   .debug_str:0000000000000073 .LASF137
C:\Users\kasie\AppData\Local\Temp\cchM6K43.s:4365   .debug_str:000000000000085f .LASF182
C:\Users\kasie\AppData\Local\Temp\cchM6K43.s:14     .text.startup.main:0000000000000000 .LFB2
C:\Users\kasie\AppData\Local\Temp\cchM6K43.s:563    .text.startup.main:00000000000002fc .LFE2
C:\Users\kasie\AppData\Local\Temp\cchM6K43.s:3555   .debug_loc:0000000000000000 .LLST0
C:\Users\kasie\AppData\Local\Temp\cchM6K43.s:3568   .debug_loc:0000000000000021 .LLST1
C:\Users\kasie\AppData\Local\Temp\cchM6K43.s:4159   .debug_str:00000000000003a2 .LASF138
C:\Users\kasie\AppData\Local\Temp\cchM6K43.s:3583   .debug_loc:000000000000004a .LLST2
C:\Users\kasie\AppData\Local\Temp\cchM6K43.s:4261   .debug_str:00000000000005b5 .LASF139
C:\Users\kasie\AppData\Local\Temp\cchM6K43.s:3604   .debug_loc:0000000000000080 .LLST3
C:\Users\kasie\AppData\Local\Temp\cchM6K43.s:4171   .debug_str:00000000000003e3 .LASF140
C:\Users\kasie\AppData\Local\Temp\cchM6K43.s:3626   .debug_loc:00000000000000b7 .LLST4
C:\Users\kasie\AppData\Local\Temp\cchM6K43.s:4195   .debug_str:0000000000000460 .LASF141
C:\Users\kasie\AppData\Local\Temp\cchM6K43.s:3651   .debug_loc:00000000000000f8 .LLST5
C:\Users\kasie\AppData\Local\Temp\cchM6K43.s:4341   .debug_str:00000000000007d6 .LASF142
C:\Users\kasie\AppData\Local\Temp\cchM6K43.s:3694   .debug_loc:0000000000000167 .LLST6
C:\Users\kasie\AppData\Local\Temp\cchM6K43.s:4327   .debug_str:000000000000079c .LASF143
C:\Users\kasie\AppData\Local\Temp\cchM6K43.s:4357   .debug_str:0000000000000839 .LASF183
C:\Users\kasie\AppData\Local\Temp\cchM6K43.s:4123   .debug_str:0000000000000289 .LASF160
C:\Users\kasie\AppData\Local\Temp\cchM6K43.s:4135   .debug_str:0000000000000310 .LASF144
C:\Users\kasie\AppData\Local\Temp\cchM6K43.s:3706   .debug_loc:0000000000000186 .LLST7
C:\Users\kasie\AppData\Local\Temp\cchM6K43.s:174    .text.startup.main:00000000000000de .LVL19
C:\Users\kasie\AppData\Local\Temp\cchM6K43.s:4085   .debug_str:00000000000001d9 .LASF145
C:\Users\kasie\AppData\Local\Temp\cchM6K43.s:3731   .debug_loc:00000000000001b2 .LLST8
C:\Users\kasie\AppData\Local\Temp\cchM6K43.s:4337   .debug_str:00000000000007c7 .LASF146
C:\Users\kasie\AppData\Local\Temp\cchM6K43.s:3757   .debug_loc:00000000000001ee .LLST9
C:\Users\kasie\AppData\Local\Temp\cchM6K43.s:4247   .debug_str:0000000000000567 .LASF147
C:\Users\kasie\AppData\Local\Temp\cchM6K43.s:3776   .debug_loc:000000000000021b .LLST10
C:\Users\kasie\AppData\Local\Temp\cchM6K43.s:4175   .debug_str:0000000000000400 .LASF148
C:\Users\kasie\AppData\Local\Temp\cchM6K43.s:3795   .debug_loc:0000000000000248 .LLST11
C:\Users\kasie\AppData\Local\Temp\cchM6K43.s:4305   .debug_str:0000000000000715 .LASF149
C:\Users\kasie\AppData\Local\Temp\cchM6K43.s:3808   .debug_loc:0000000000000261 .LLST12
C:\Users\kasie\AppData\Local\Temp\cchM6K43.s:4041   .debug_str:00000000000000f8 .LASF150
C:\Users\kasie\AppData\Local\Temp\cchM6K43.s:3825   .debug_loc:000000000000027e .LLST13
C:\Users\kasie\AppData\Local\Temp\cchM6K43.s:232    .text.startup.main:0000000000000144 .LVL28
GAS LISTING C:\Users\kasie\AppData\Local\Temp\cchM6K43.s 			page 25


C:\Users\kasie\AppData\Local\Temp\cchM6K43.s:239    .text.startup.main:0000000000000154 .LVL30
C:\Users\kasie\AppData\Local\Temp\cchM6K43.s:244    .text.startup.main:0000000000000162 .LVL31
C:\Users\kasie\AppData\Local\Temp\cchM6K43.s:467    .text.startup.main:000000000000028a .LBB11
C:\Users\kasie\AppData\Local\Temp\cchM6K43.s:492    .text.startup.main:00000000000002a6 .LBE11
C:\Users\kasie\AppData\Local\Temp\cchM6K43.s:3837   .debug_loc:000000000000029d .LLST15
C:\Users\kasie\AppData\Local\Temp\cchM6K43.s:464    .text.startup.main:000000000000028a .LVL56
C:\Users\kasie\AppData\Local\Temp\cchM6K43.s:509    .text.startup.main:00000000000002bc .LBB9
C:\Users\kasie\AppData\Local\Temp\cchM6K43.s:534    .text.startup.main:00000000000002d8 .LBE9
C:\Users\kasie\AppData\Local\Temp\cchM6K43.s:3849   .debug_loc:00000000000002bc .LLST14
C:\Users\kasie\AppData\Local\Temp\cchM6K43.s:506    .text.startup.main:00000000000002bc .LVL61
C:\Users\kasie\AppData\Local\Temp\cchM6K43.s:4093   .debug_str:00000000000001f4 .LASF151
C:\Users\kasie\AppData\Local\Temp\cchM6K43.s:3861   .debug_loc:00000000000002db .LLST16
C:\Users\kasie\AppData\Local\Temp\cchM6K43.s:4299   .debug_str:0000000000000672 .LASF152
C:\Users\kasie\AppData\Local\Temp\cchM6K43.s:4197   .debug_str:000000000000046f .LASF184
C:\Users\kasie\AppData\Local\Temp\cchM6K43.s:438    .text.startup.main:000000000000026e .LVL51
C:\Users\kasie\AppData\Local\Temp\cchM6K43.s:387    .text.startup.main:0000000000000208 .LVL49
C:\Users\kasie\AppData\Local\Temp\cchM6K43.s:554    .text.startup.main:00000000000002f8 .LVL66
C:\Users\kasie\AppData\Local\Temp\cchM6K43.s:141    .text.startup.main:00000000000000a4 .LVL12
C:\Users\kasie\AppData\Local\Temp\cchM6K43.s:144    .text.startup.main:00000000000000ac .LVL13
C:\Users\kasie\AppData\Local\Temp\cchM6K43.s:148    .text.startup.main:00000000000000b4 .LVL14
C:\Users\kasie\AppData\Local\Temp\cchM6K43.s:153    .text.startup.main:00000000000000be .LVL15
C:\Users\kasie\AppData\Local\Temp\cchM6K43.s:155    .text.startup.main:00000000000000c6 .LVL16
C:\Users\kasie\AppData\Local\Temp\cchM6K43.s:193    .text.startup.main:00000000000000f0 .LVL23
C:\Users\kasie\AppData\Local\Temp\cchM6K43.s:206    .text.startup.main:000000000000010c .LVL25
C:\Users\kasie\AppData\Local\Temp\cchM6K43.s:212    .text.startup.main:000000000000011a .LVL26
C:\Users\kasie\AppData\Local\Temp\cchM6K43.s:222    .text.startup.main:0000000000000130 .LVL27
C:\Users\kasie\AppData\Local\Temp\cchM6K43.s:373    .text.startup.main:00000000000001ec .LVL48
C:\Users\kasie\AppData\Local\Temp\cchM6K43.s:55     .text.startup.main:0000000000000024 .LVL1
C:\Users\kasie\AppData\Local\Temp\cchM6K43.s:58     .text.startup.main:000000000000002c .LVL2
C:\Users\kasie\AppData\Local\Temp\cchM6K43.s:61     .text.startup.main:0000000000000034 .LVL3
C:\Users\kasie\AppData\Local\Temp\cchM6K43.s:64     .text.startup.main:000000000000003c .LVL4
C:\Users\kasie\AppData\Local\Temp\cchM6K43.s:68     .text.startup.main:0000000000000046 .LVL5
C:\Users\kasie\AppData\Local\Temp\cchM6K43.s:72     .text.startup.main:0000000000000050 .LVL6
C:\Users\kasie\AppData\Local\Temp\cchM6K43.s:75     .text.startup.main:0000000000000058 .LVL7
C:\Users\kasie\AppData\Local\Temp\cchM6K43.s:79     .text.startup.main:0000000000000062 .LVL8
C:\Users\kasie\AppData\Local\Temp\cchM6K43.s:94     .text.startup.main:0000000000000072 .LVL9
C:\Users\kasie\AppData\Local\Temp\cchM6K43.s:100    .text.startup.main:000000000000007c .LVL10
C:\Users\kasie\AppData\Local\Temp\cchM6K43.s:4239   .debug_str:000000000000053d .LASF153
C:\Users\kasie\AppData\Local\Temp\cchM6K43.s:4343   .debug_str:00000000000007e2 .LASF154
C:\Users\kasie\AppData\Local\Temp\cchM6K43.s:4355   .debug_str:000000000000082a .LASF155
C:\Users\kasie\AppData\Local\Temp\cchM6K43.s:4147   .debug_str:0000000000000352 .LASF185
C:\Users\kasie\AppData\Local\Temp\cchM6K43.s:4155   .debug_str:000000000000038b .LASF186
C:\Users\kasie\AppData\Local\Temp\cchM6K43.s:4293   .debug_str:0000000000000653 .LASF156
C:\Users\kasie\AppData\Local\Temp\cchM6K43.s:4279   .debug_str:0000000000000606 .LASF157
C:\Users\kasie\AppData\Local\Temp\cchM6K43.s:4167   .debug_str:00000000000003cd .LASF158
C:\Users\kasie\AppData\Local\Temp\cchM6K43.s:4201   .debug_str:0000000000000481 .LASF159
C:\Users\kasie\AppData\Local\Temp\cchM6K43.s:4229   .debug_str:000000000000050e .LASF161
C:\Users\kasie\AppData\Local\Temp\cchM6K43.s:4033   .debug_str:00000000000000d7 .LASF162
C:\Users\kasie\AppData\Local\Temp\cchM6K43.s:4289   .debug_str:0000000000000644 .LASF163
C:\Users\kasie\AppData\Local\Temp\cchM6K43.s:4049   .debug_str:000000000000012d .LASF164
C:\Users\kasie\AppData\Local\Temp\cchM6K43.s:4151   .debug_str:0000000000000360 .LASF165
C:\Users\kasie\AppData\Local\Temp\cchM6K43.s:4065   .debug_str:0000000000000174 .LASF166
C:\Users\kasie\AppData\Local\Temp\cchM6K43.s:4141   .debug_str:0000000000000335 .LASF167
C:\Users\kasie\AppData\Local\Temp\cchM6K43.s:4311   .debug_str:0000000000000738 .LASF168
C:\Users\kasie\AppData\Local\Temp\cchM6K43.s:4057   .debug_str:0000000000000152 .LASF169
C:\Users\kasie\AppData\Local\Temp\cchM6K43.s:4209   .debug_str:00000000000004b1 .LASF170
C:\Users\kasie\AppData\Local\Temp\cchM6K43.s:4045   .debug_str:000000000000010e .LASF171
GAS LISTING C:\Users\kasie\AppData\Local\Temp\cchM6K43.s 			page 26


C:\Users\kasie\AppData\Local\Temp\cchM6K43.s:4323   .debug_str:000000000000077d .LASF172
C:\Users\kasie\AppData\Local\Temp\cchM6K43.s:4241   .debug_str:0000000000000551 .LASF173
C:\Users\kasie\AppData\Local\Temp\cchM6K43.s:4359   .debug_str:0000000000000843 .LASF174
C:\Users\kasie\AppData\Local\Temp\cchM6K43.s:4063   .debug_str:000000000000016a .LASF175
C:\Users\kasie\AppData\Local\Temp\cchM6K43.s:4369   .debug_str:000000000000086e .LASF176
C:\Users\kasie\AppData\Local\Temp\cchM6K43.s:4131   .debug_str:00000000000002e7 .LASF177
C:\Users\kasie\AppData\Local\Temp\cchM6K43.s:25     .text.startup.main:0000000000000002 .LCFI0
C:\Users\kasie\AppData\Local\Temp\cchM6K43.s:204    .text.startup.main:0000000000000104 .LVL24
C:\Users\kasie\AppData\Local\Temp\cchM6K43.s:449    .text.startup.main:0000000000000274 .LVL54
C:\Users\kasie\AppData\Local\Temp\cchM6K43.s:462    .text.startup.main:0000000000000282 .LVL55
C:\Users\kasie\AppData\Local\Temp\cchM6K43.s:490    .text.startup.main:00000000000002a6 .LVL59
C:\Users\kasie\AppData\Local\Temp\cchM6K43.s:504    .text.startup.main:00000000000002b4 .LVL60
C:\Users\kasie\AppData\Local\Temp\cchM6K43.s:19     .text.startup.main:0000000000000000 .LVL0
C:\Users\kasie\AppData\Local\Temp\cchM6K43.s:132    .text.startup.main:000000000000009c .LVL11
C:\Users\kasie\AppData\Local\Temp\cchM6K43.s:171    .text.startup.main:00000000000000d6 .LVL18
C:\Users\kasie\AppData\Local\Temp\cchM6K43.s:184    .text.startup.main:00000000000000e6 .LVL21
C:\Users\kasie\AppData\Local\Temp\cchM6K43.s:187    .text.startup.main:00000000000000e8 .LVL22
C:\Users\kasie\AppData\Local\Temp\cchM6K43.s:357    .text.startup.main:00000000000001de .LVL46
C:\Users\kasie\AppData\Local\Temp\cchM6K43.s:365    .text.startup.main:00000000000001e0 .LVL47
C:\Users\kasie\AppData\Local\Temp\cchM6K43.s:181    .text.startup.main:00000000000000e4 .LVL20
C:\Users\kasie\AppData\Local\Temp\cchM6K43.s:234    .text.startup.main:0000000000000146 .LVL29
C:\Users\kasie\AppData\Local\Temp\cchM6K43.s:335    .text.startup.main:00000000000001c6 .LVL43
C:\Users\kasie\AppData\Local\Temp\cchM6K43.s:532    .text.startup.main:00000000000002d8 .LVL64
C:\Users\kasie\AppData\Local\Temp\cchM6K43.s:161    .text.startup.main:00000000000000ca .LVL17
C:\Users\kasie\AppData\Local\Temp\cchM6K43.s:258    .text.startup.main:0000000000000176 .LVL32
C:\Users\kasie\AppData\Local\Temp\cchM6K43.s:268    .text.startup.main:000000000000017c .LVL34
C:\Users\kasie\AppData\Local\Temp\cchM6K43.s:270    .text.startup.main:000000000000017e .LVL35
C:\Users\kasie\AppData\Local\Temp\cchM6K43.s:323    .text.startup.main:00000000000001b6 .LVL42
C:\Users\kasie\AppData\Local\Temp\cchM6K43.s:264    .text.startup.main:000000000000017a .LVL33
C:\Users\kasie\AppData\Local\Temp\cchM6K43.s:273    .text.startup.main:0000000000000182 .LVL36
C:\Users\kasie\AppData\Local\Temp\cchM6K43.s:320    .text.startup.main:00000000000001b2 .LVL41
C:\Users\kasie\AppData\Local\Temp\cchM6K43.s:284    .text.startup.main:000000000000018e .LVL37
C:\Users\kasie\AppData\Local\Temp\cchM6K43.s:292    .text.startup.main:000000000000019a .LVL39
C:\Users\kasie\AppData\Local\Temp\cchM6K43.s:304    .text.startup.main:00000000000001a0 .LVL40
C:\Users\kasie\AppData\Local\Temp\cchM6K43.s:341    .text.startup.main:00000000000001c8 .LVL44
C:\Users\kasie\AppData\Local\Temp\cchM6K43.s:473    .text.startup.main:000000000000028e .LVL57
C:\Users\kasie\AppData\Local\Temp\cchM6K43.s:515    .text.startup.main:00000000000002c0 .LVL62
C:\Users\kasie\AppData\Local\Temp\cchM6K43.s:436    .text.startup.main:0000000000000266 .LVL50
C:\Users\kasie\AppData\Local\Temp\cchM6K43.s:447    .text.startup.main:0000000000000272 .LVL53
C:\Users\kasie\AppData\Local\Temp\cchM6K43.s:552    .text.startup.main:00000000000002f0 .LVL65
C:\Users\kasie\AppData\Local\Temp\cchM6K43.s:558    .text.startup.main:00000000000002fa .LVL67
C:\Users\kasie\AppData\Local\Temp\cchM6K43.s:598    .debug_info:0000000000000000 .Ldebug_info0
C:\Users\kasie\AppData\Local\Temp\cchM6K43.s:82     .text.startup.main:0000000000000064 .LBB2
C:\Users\kasie\AppData\Local\Temp\cchM6K43.s:91     .text.startup.main:000000000000006a .LBE2
C:\Users\kasie\AppData\Local\Temp\cchM6K43.s:109    .text.startup.main:0000000000000084 .LBB24
C:\Users\kasie\AppData\Local\Temp\cchM6K43.s:136    .text.startup.main:000000000000009c .LBE24
C:\Users\kasie\AppData\Local\Temp\cchM6K43.s:138    .text.startup.main:000000000000009c .LBB25
C:\Users\kasie\AppData\Local\Temp\cchM6K43.s:561    .text.startup.main:00000000000002fc .LBE25
C:\Users\kasie\AppData\Local\Temp\cchM6K43.s:83     .text.startup.main:0000000000000064 .LBB3
C:\Users\kasie\AppData\Local\Temp\cchM6K43.s:86     .text.startup.main:0000000000000068 .LBE3
C:\Users\kasie\AppData\Local\Temp\cchM6K43.s:110    .text.startup.main:0000000000000084 .LBB7
C:\Users\kasie\AppData\Local\Temp\cchM6K43.s:113    .text.startup.main:0000000000000088 .LBE7
C:\Users\kasie\AppData\Local\Temp\cchM6K43.s:159    .text.startup.main:00000000000000ca .LBB17
C:\Users\kasie\AppData\Local\Temp\cchM6K43.s:189    .text.startup.main:00000000000000e8 .LBE17
C:\Users\kasie\AppData\Local\Temp\cchM6K43.s:87     .text.startup.main:0000000000000068 .LBB4
C:\Users\kasie\AppData\Local\Temp\cchM6K43.s:90     .text.startup.main:000000000000006a .LBE4
C:\Users\kasie\AppData\Local\Temp\cchM6K43.s:122    .text.startup.main:0000000000000090 .LBB12
GAS LISTING C:\Users\kasie\AppData\Local\Temp\cchM6K43.s 			page 27


C:\Users\kasie\AppData\Local\Temp\cchM6K43.s:125    .text.startup.main:0000000000000094 .LBE12
C:\Users\kasie\AppData\Local\Temp\cchM6K43.s:226    .text.startup.main:0000000000000136 .LBB18
C:\Users\kasie\AppData\Local\Temp\cchM6K43.s:360    .text.startup.main:00000000000001de .LBE18
C:\Users\kasie\AppData\Local\Temp\cchM6K43.s:314    .text.startup.main:00000000000001ac .LBB5
C:\Users\kasie\AppData\Local\Temp\cchM6K43.s:317    .text.startup.main:00000000000001ae .LBE5
C:\Users\kasie\AppData\Local\Temp\cchM6K43.s:337    .text.startup.main:00000000000001c6 .LBB6
C:\Users\kasie\AppData\Local\Temp\cchM6K43.s:359    .text.startup.main:00000000000001de .LBE6
C:\Users\kasie\AppData\Local\Temp\cchM6K43.s:114    .text.startup.main:0000000000000088 .LBB8
C:\Users\kasie\AppData\Local\Temp\cchM6K43.s:117    .text.startup.main:000000000000008c .LBE8
C:\Users\kasie\AppData\Local\Temp\cchM6K43.s:361    .text.startup.main:00000000000001de .LBB19
C:\Users\kasie\AppData\Local\Temp\cchM6K43.s:367    .text.startup.main:00000000000001e0 .LBE19
C:\Users\kasie\AppData\Local\Temp\cchM6K43.s:498    .text.startup.main:00000000000002ac .LBB22
C:\Users\kasie\AppData\Local\Temp\cchM6K43.s:535    .text.startup.main:00000000000002d8 .LBE22
C:\Users\kasie\AppData\Local\Temp\cchM6K43.s:118    .text.startup.main:000000000000008c .LBB10
C:\Users\kasie\AppData\Local\Temp\cchM6K43.s:121    .text.startup.main:0000000000000090 .LBE10
C:\Users\kasie\AppData\Local\Temp\cchM6K43.s:456    .text.startup.main:000000000000027a .LBB21
C:\Users\kasie\AppData\Local\Temp\cchM6K43.s:493    .text.startup.main:00000000000002a6 .LBE21
C:\Users\kasie\AppData\Local\Temp\cchM6K43.s:126    .text.startup.main:0000000000000094 .LBB13
C:\Users\kasie\AppData\Local\Temp\cchM6K43.s:135    .text.startup.main:000000000000009c .LBE13
C:\Users\kasie\AppData\Local\Temp\cchM6K43.s:379    .text.startup.main:00000000000001f8 .LBB20
C:\Users\kasie\AppData\Local\Temp\cchM6K43.s:451    .text.startup.main:0000000000000274 .LBE20
C:\Users\kasie\AppData\Local\Temp\cchM6K43.s:536    .text.startup.main:00000000000002d8 .LBB23
C:\Users\kasie\AppData\Local\Temp\cchM6K43.s:560    .text.startup.main:00000000000002fc .LBE23
C:\Users\kasie\AppData\Local\Temp\cchM6K43.s:127    .text.startup.main:0000000000000094 .LBB14
C:\Users\kasie\AppData\Local\Temp\cchM6K43.s:134    .text.startup.main:000000000000009c .LBE14
C:\Users\kasie\AppData\Local\Temp\cchM6K43.s:401    .text.startup.main:000000000000021c .LBB15
C:\Users\kasie\AppData\Local\Temp\cchM6K43.s:439    .text.startup.main:000000000000026e .LBE15
C:\Users\kasie\AppData\Local\Temp\cchM6K43.s:537    .text.startup.main:00000000000002d8 .LBB16
C:\Users\kasie\AppData\Local\Temp\cchM6K43.s:545    .text.startup.main:00000000000002e4 .LBE16

UNDEFINED SYMBOLS
t5omsi
colinit
l88init
keyinit
ADC3powerUpInit
Lcd_SetType
Lcd_Init
LCD_Clear
u0init
eclic_global_interrupt_enable
LCD_WR_Queue
u0_TX_Queue
t5expq
colset
l88row
usart_data_transmit
keyscan
adc_software_trigger_enable
adc_flag_get
adc_inserted_data_read
adc_flag_clear
usart_flag_get
usart_data_receive
LCD_ShowStr
memcpy
LCD_ShowChar
GAS LISTING C:\Users\kasie\AppData\Local\Temp\cchM6K43.s 			page 28


