GAS LISTING C:\Users\kasie\AppData\Local\Temp\cc81Bn94.s 			page 1


   1              		.file	"main.c"
   2              		.option nopic
   3              		.attribute arch, "rv32i2p0_m2p0_a2p0_c2p0"
   4              		.attribute unaligned_access, 0
   5              		.attribute stack_align, 16
   6              		.text
   7              	.Ltext0:
   8              		.cfi_sections	.debug_frame
   9              		.section	.text.startup.main,"ax",@progbits
  10              		.align	1
  11              		.globl	main
  13              	main:
  14              	.LFB3:
  15              		.file 1 "main.c"
   1:main.c        **** #include "gd32vf103.h"
   2:main.c        **** #include "drivers.h"
   3:main.c        **** #include "adc.h"
   4:main.c        **** #include "lcd.h"
   5:main.c        **** #include "usart.h"
   6:main.c        **** 
   7:main.c        **** #include <string.h>
   8:main.c        **** 
   9:main.c        **** #define TRUE 1
  10:main.c        **** #define FALSE 0
  11:main.c        **** 
  12:main.c        **** int main(void)
  13:main.c        **** {
  16              		.loc 1 13 1
  17              		.cfi_startproc
  14:main.c        ****   int key, currentSendIndex = 0, transmitDataNow = FALSE, currentLine = 0, receivedDataArray[7], cu
  18              		.loc 1 14 3
  19              	.LVL0:
  15:main.c        ****   char transmitData[7];
  20              		.loc 1 15 3
  16:main.c        **** 
  17:main.c        ****   t5omsi();                // Initialize timer5 1kHz
  21              		.loc 1 17 3
  13:main.c        ****   int key, currentSendIndex = 0, transmitDataNow = FALSE, currentLine = 0, receivedDataArray[7], cu
  22              		.loc 1 13 1 is_stmt 0
  23 0000 1971     		addi	sp,sp,-128
  24              	.LCFI0:
  25              		.cfi_def_cfa_offset 128
  26 0002 86DE     		sw	ra,124(sp)
  27 0004 A2DC     		sw	s0,120(sp)
  28 0006 A6DA     		sw	s1,116(sp)
  29 0008 CAD8     		sw	s2,112(sp)
  30 000a CED6     		sw	s3,108(sp)
  31 000c D2D4     		sw	s4,104(sp)
  32 000e D6D2     		sw	s5,100(sp)
  33 0010 DAD0     		sw	s6,96(sp)
  34 0012 DECE     		sw	s7,92(sp)
  35 0014 E2CC     		sw	s8,88(sp)
  36 0016 EAC8     		sw	s10,80(sp)
  37 0018 E6CA     		sw	s9,84(sp)
  38 001a EEC6     		sw	s11,76(sp)
  39              		.cfi_offset 1, -4
  40              		.cfi_offset 8, -8
GAS LISTING C:\Users\kasie\AppData\Local\Temp\cc81Bn94.s 			page 2


  41              		.cfi_offset 9, -12
  42              		.cfi_offset 18, -16
  43              		.cfi_offset 19, -20
  44              		.cfi_offset 20, -24
  45              		.cfi_offset 21, -28
  46              		.cfi_offset 22, -32
  47              		.cfi_offset 23, -36
  48              		.cfi_offset 24, -40
  49              		.cfi_offset 26, -48
  50              		.cfi_offset 25, -44
  51              		.cfi_offset 27, -52
  52              		.loc 1 17 3
  53 001c 97000000 		call	t5omsi
  53      E7800000 
  54              	.LVL1:
  18:main.c        ****   colinit();               // Initialize column toolbox
  55              		.loc 1 18 3 is_stmt 1
  56 0024 97000000 		call	colinit
  56      E7800000 
  57              	.LVL2:
  19:main.c        ****   l88init();               // Initialize 8*8 led toolbox
  58              		.loc 1 19 3
  59 002c 97000000 		call	l88init
  59      E7800000 
  60              	.LVL3:
  20:main.c        ****   keyinit();               // Initialize keyboard toolbox
  61              		.loc 1 20 3
  62 0034 97000000 		call	keyinit
  62      E7800000 
  63              	.LVL4:
  21:main.c        ****   ADC3powerUpInit(1);      // Initialize ADC0, Ch3
  64              		.loc 1 21 3
  65 003c 0545     		li	a0,1
  66 003e 97000000 		call	ADC3powerUpInit
  66      E7800000 
  67              	.LVL5:
  22:main.c        ****   Lcd_SetType(LCD_NORMAL); // or use LCD_INVERTED!
  68              		.loc 1 22 3
  69 0046 0145     		li	a0,0
  70 0048 97000000 		call	Lcd_SetType
  70      E7800000 
  71              	.LVL6:
  23:main.c        ****   Lcd_Init();
  72              		.loc 1 23 3
  73 0050 97000000 		call	Lcd_Init
  73      E7800000 
  74              	.LVL7:
  24:main.c        ****   LCD_Clear(BLACK);
  75              		.loc 1 24 3
  76 0058 0145     		li	a0,0
  77 005a 97000000 		call	LCD_Clear
  77      E7800000 
  78              	.LVL8:
  25:main.c        ****   u0init(TRUE);                    // Initialize USART0 toolbox
  79              		.loc 1 25 3
  80 0062 0545     		li	a0,1
  81              	.LBB2:
GAS LISTING C:\Users\kasie\AppData\Local\Temp\cc81Bn94.s 			page 3


  26:main.c        ****   eclic_global_interrupt_enable(); // !!! INTERRUPT ENABLED !!!
  27:main.c        **** 
  28:main.c        ****   while (TRUE)
  29:main.c        ****   {
  30:main.c        ****     LCD_WR_Queue(); // Manage LCD com queue!
  31:main.c        ****     u0_TX_Queue();  // Manage U(S)ART TX Queue!
  32:main.c        **** 
  33:main.c        ****     if (t5expq())
  34:main.c        ****     {
  35:main.c        ****       l88row(colset()); // ...8*8LED and Keyboard
  36:main.c        **** 
  37:main.c        ****       if (transmitDataNow == TRUE) // If there is data to transmit
  38:main.c        ****       {
  39:main.c        ****         usart_data_transmit(USART0, transmitData[currentSendIndex]); // Transmit one char at a time
  82              		.loc 1 39 9 is_stmt 0
  83 0064 37490140 		li	s2,1073823744
  84              	.LBB3:
  40:main.c        ****         currentSendIndex++;                                          // Go to next char to transmit
  41:main.c        **** 
  42:main.c        ****         if (currentSendIndex == sizeof(transmitData)) // If we have sent the whole word
  43:main.c        ****         {
  44:main.c        ****           transmitDataNow = FALSE; // Reset
  45:main.c        ****           currentSendIndex = 0;    // Reset
  46:main.c        ****         }
  47:main.c        ****       }
  48:main.c        **** 
  49:main.c        ****       if ((key = keyscan()) >= 0)
  50:main.c        ****       {
  51:main.c        ****         if (key == 12) // A
  52:main.c        ****         {
  53:main.c        ****           adc_software_trigger_enable(ADC0, ADC_REGULAR_CHANNEL); // Trigger another ADC conversion
  54:main.c        **** 
  55:main.c        ****           if (adc_flag_get(ADC0, ADC_FLAG_EOC) == SET)
  56:main.c        ****           { // ...ADC done?
  57:main.c        ****             if (adc_flag_get(ADC0, ADC_FLAG_EOIC) == SET)
  58:main.c        ****             {
  59:main.c        ****               int tmpr = adc_inserted_data_read(ADC0, ADC_INSERTED_CHANNEL_0); // Get current tempr
  60:main.c        **** 
  61:main.c        ****               adc_flag_clear(ADC0, ADC_FLAG_EOC);
  62:main.c        ****               adc_flag_clear(ADC0, ADC_FLAG_EOIC);
  63:main.c        **** 
  64:main.c        ****               tmpr = ((0x680 - tmpr) / 5) + 25; // Convert tmpr to a normal value
  65:main.c        **** 
  66:main.c        ****               int sign = '+'; // Default
  67:main.c        ****               if (tmpr < 0)
  68:main.c        ****               {
  69:main.c        ****                 sign = '-';
  70:main.c        ****                 tmpr = -tmpr; // Make tmpr positive for consistent handling
  71:main.c        ****               }
  72:main.c        **** 
  73:main.c        ****               int hundredsDigit = '0'; // Default
  74:main.c        ****               if (tmpr >= 100)
  75:main.c        ****               {
  76:main.c        ****                 hundredsDigit = '1';
  77:main.c        ****                 tmpr = tmpr % 100; // Extract the remaining two digits
  78:main.c        ****               }
  79:main.c        **** 
GAS LISTING C:\Users\kasie\AppData\Local\Temp\cc81Bn94.s 			page 4


  80:main.c        ****               char tensDigit, unitsDigit;
  81:main.c        **** 
  82:main.c        ****               tensDigit = (tmpr / 10) + '0';  // Seperate into their own char
  83:main.c        ****               unitsDigit = (tmpr % 10) + '0'; // Seperate into their own char
  84:main.c        **** 
  85:main.c        ****               transmitData[0] = 'I';
  85              		.loc 1 85 31
  86 0068 116A     		li	s4,16384
  87              	.LBE3:
  88              	.LBE2:
  25:main.c        ****   eclic_global_interrupt_enable(); // !!! INTERRUPT ENABLED !!!
  89              		.loc 1 25 3
  90 006a 97000000 		call	u0init
  90      E7800000 
  91              	.LVL9:
  26:main.c        ****   eclic_global_interrupt_enable(); // !!! INTERRUPT ENABLED !!!
  92              		.loc 1 26 3 is_stmt 1
  14:main.c        ****   char transmitData[7];
  93              		.loc 1 14 98 is_stmt 0
  94 0072 0144     		li	s0,0
  26:main.c        **** 
  95              		.loc 1 26 3
  96 0074 97000000 		call	eclic_global_interrupt_enable
  96      E7800000 
  97              	.LVL10:
  14:main.c        ****   char transmitData[7];
  98              		.loc 1 14 59
  99 007c 8149     		li	s3,0
  14:main.c        ****   char transmitData[7];
 100              		.loc 1 14 34
 101 007e 014D     		li	s10,0
  14:main.c        ****   char transmitData[7];
 102              		.loc 1 14 12
 103 0080 8144     		li	s1,0
 104              	.LBB12:
  39:main.c        ****         currentSendIndex++;                                          // Go to next char to transmit
 105              		.loc 1 39 9
 106 0082 13090980 		addi	s2,s2,-2048
  86:main.c        ****               transmitData[1] = 'D';
  87:main.c        ****               transmitData[2] = sign;
  88:main.c        ****               transmitData[3] = hundredsDigit;
  89:main.c        ****               transmitData[4] = tensDigit;
  90:main.c        ****               transmitData[5] = unitsDigit;
  91:main.c        ****               transmitData[6] = 10;
  92:main.c        **** 
  93:main.c        ****               transmitDataNow = TRUE; // Ready to transmit data
  94:main.c        ****             }
  95:main.c        ****           }
  96:main.c        ****         }
  97:main.c        ****         else if (key == 13) // B
  98:main.c        ****         {
  99:main.c        ****           strcpy(transmitData, "ID-000\n");
 100:main.c        ****           transmitDataNow = TRUE;
 101:main.c        ****         }
 102:main.c        ****         else if (key == 14) // C
 103:main.c        ****         {
 104:main.c        ****           strcpy(transmitData, "ID*000\n");
GAS LISTING C:\Users\kasie\AppData\Local\Temp\cc81Bn94.s 			page 5


 107              		.loc 1 104 11
 108 0086 B70A0000 		lui	s5,%hi(.LC1)
  99:main.c        ****           transmitDataNow = TRUE;
 109              		.loc 1 99 11
 110 008a 370B0000 		lui	s6,%hi(.LC0)
 111              	.LBB4:
  85:main.c        ****               transmitData[1] = 'D';
 112              		.loc 1 85 31
 113 008e 130A9A44 		addi	s4,s4,1097
 114              	.LBE4:
 115              	.LBB5:
 116              	.LBB6:
 105:main.c        ****           transmitDataNow = TRUE;
 106:main.c        ****         }
 107:main.c        ****       }
 108:main.c        **** 
 109:main.c        ****       if (usart_flag_get(USART0, USART_FLAG_RBNE))
 110:main.c        ****       {
 111:main.c        ****         int receivedData = usart_data_receive(USART0); // Receive one char at a time
 112:main.c        **** 
 113:main.c        ****         receivedDataArray[currentReceiveIndex] = receivedData; // Put each char of the word in the 
 114:main.c        **** 
 115:main.c        ****         if (receivedData == 10) // If whole word has been received, \n
 116:main.c        ****         {
 117:main.c        ****           if (receivedDataArray[0] == 'I' &&
 118:main.c        ****               receivedDataArray[1] == 'D' &&
 119:main.c        ****               (receivedDataArray[2] == '+' || receivedDataArray[2] == '-') &&
 120:main.c        ****               isdigit(receivedDataArray[3]) && // Check if it's a digit '0' to '9'
 121:main.c        ****               isdigit(receivedDataArray[4]) &&
 122:main.c        ****               isdigit(receivedDataArray[5]))
 123:main.c        ****           { // If A or B has been pressed
 124:main.c        ****             LCD_ShowStr(currentReceiveIndex * 10, currentLine * 15, " OK!", WHITE, TRANSPARENT);
 125:main.c        ****           }
 126:main.c        ****           else
 127:main.c        ****           {
 128:main.c        ****             LCD_ShowStr(currentReceiveIndex * 10, currentLine * 15, " ERR", WHITE, TRANSPARENT);
 117              		.loc 1 128 13
 118 0092 B70B0000 		lui	s7,%hi(.LC3)
 124:main.c        ****           }
 119              		.loc 1 124 13
 120 0096 370C0000 		lui	s8,%hi(.LC2)
 121              	.LVL11:
 122              	.L3:
 123              	.LBE6:
 124              	.LBE5:
 125              	.LBE12:
  28:main.c        ****   {
 126              		.loc 1 28 3 is_stmt 1
 127              	.LBB13:
  30:main.c        ****     u0_TX_Queue();  // Manage U(S)ART TX Queue!
 128              		.loc 1 30 5
 129 009a 97000000 		call	LCD_WR_Queue
 129      E7800000 
 130              	.LVL12:
  31:main.c        **** 
 131              		.loc 1 31 5
 132 00a2 97000000 		call	u0_TX_Queue
GAS LISTING C:\Users\kasie\AppData\Local\Temp\cc81Bn94.s 			page 6


 132      E7800000 
 133              	.LVL13:
  33:main.c        ****     {
 134              		.loc 1 33 5
  33:main.c        ****     {
 135              		.loc 1 33 9 is_stmt 0
 136 00aa 97000000 		call	t5expq
 136      E7800000 
 137              	.LVL14:
  33:main.c        ****     {
 138              		.loc 1 33 8
 139 00b2 65D5     		beq	a0,zero,.L3
  35:main.c        **** 
 140              		.loc 1 35 7 is_stmt 1
 141 00b4 97000000 		call	colset
 141      E7800000 
 142              	.LVL15:
 143 00bc 97000000 		call	l88row
 143      E7800000 
 144              	.LVL16:
  37:main.c        ****       {
 145              		.loc 1 37 7
  37:main.c        ****       {
 146              		.loc 1 37 10 is_stmt 0
 147 00c4 63010D02 		beq	s10,zero,.L4
  39:main.c        ****         currentSendIndex++;                                          // Go to next char to transmit
 148              		.loc 1 39 9 is_stmt 1
  39:main.c        ****         currentSendIndex++;                                          // Go to next char to transmit
 149              		.loc 1 39 49 is_stmt 0
 150 00c8 9C00     		addi	a5,sp,64
 151 00ca A697     		add	a5,a5,s1
  39:main.c        ****         currentSendIndex++;                                          // Go to next char to transmit
 152              		.loc 1 39 9
 153 00cc 83C5C7FD 		lbu	a1,-36(a5)
 154 00d0 4A85     		mv	a0,s2
  40:main.c        **** 
 155              		.loc 1 40 25
 156 00d2 8504     		addi	s1,s1,1
 157              	.LVL17:
  39:main.c        ****         currentSendIndex++;                                          // Go to next char to transmit
 158              		.loc 1 39 9
 159 00d4 97000000 		call	usart_data_transmit
 159      E7800000 
 160              	.LVL18:
  40:main.c        **** 
 161              		.loc 1 40 9 is_stmt 1
  42:main.c        ****         {
 162              		.loc 1 42 9
  42:main.c        ****         {
 163              		.loc 1 42 12 is_stmt 0
 164 00dc 9D47     		li	a5,7
 165 00de 6394F400 		bne	s1,a5,.L4
  44:main.c        ****           currentSendIndex = 0;    // Reset
 166              		.loc 1 44 27
 167 00e2 014D     		li	s10,0
 168              	.LVL19:
  45:main.c        ****         }
GAS LISTING C:\Users\kasie\AppData\Local\Temp\cc81Bn94.s 			page 7


 169              		.loc 1 45 28
 170 00e4 8144     		li	s1,0
 171              	.LVL20:
 172              	.L4:
  49:main.c        ****       {
 173              		.loc 1 49 7 is_stmt 1
  49:main.c        ****       {
 174              		.loc 1 49 18 is_stmt 0
 175 00e6 97000000 		call	keyscan
 175      E7800000 
 176              	.LVL21:
  49:main.c        ****       {
 177              		.loc 1 49 10
 178 00ee 634B050C 		blt	a0,zero,.L5
  51:main.c        ****         {
 179              		.loc 1 51 9 is_stmt 1
  51:main.c        ****         {
 180              		.loc 1 51 12 is_stmt 0
 181 00f2 B147     		li	a5,12
 182 00f4 6311F516 		bne	a0,a5,.L6
  53:main.c        **** 
 183              		.loc 1 53 11 is_stmt 1
 184 00f8 B72C0140 		li	s9,1073815552
 185 00fc 8545     		li	a1,1
 186 00fe 13850C40 		addi	a0,s9,1024
 187              	.LVL22:
 188 0102 97000000 		call	adc_software_trigger_enable
 188      E7800000 
 189              	.LVL23:
  55:main.c        ****           { // ...ADC done?
 190              		.loc 1 55 11
  55:main.c        ****           { // ...ADC done?
 191              		.loc 1 55 15 is_stmt 0
 192 010a 8945     		li	a1,2
 193 010c 13850C40 		addi	a0,s9,1024
 194 0110 97000000 		call	adc_flag_get
 194      E7800000 
 195              	.LVL24:
  55:main.c        ****           { // ...ADC done?
 196              		.loc 1 55 14
 197 0118 8547     		li	a5,1
  55:main.c        ****           { // ...ADC done?
 198              		.loc 1 55 15
 199 011a AA8D     		mv	s11,a0
  55:main.c        ****           { // ...ADC done?
 200              		.loc 1 55 14
 201 011c 6314F50A 		bne	a0,a5,.L5
  57:main.c        ****             {
 202              		.loc 1 57 13 is_stmt 1
  57:main.c        ****             {
 203              		.loc 1 57 17 is_stmt 0
 204 0120 9145     		li	a1,4
 205 0122 13850C40 		addi	a0,s9,1024
 206 0126 97000000 		call	adc_flag_get
 206      E7800000 
 207              	.LVL25:
  57:main.c        ****             {
GAS LISTING C:\Users\kasie\AppData\Local\Temp\cc81Bn94.s 			page 8


 208              		.loc 1 57 16
 209 012e 631BB509 		bne	a0,s11,.L5
 210              	.LBB9:
  59:main.c        **** 
 211              		.loc 1 59 15 is_stmt 1
  59:main.c        **** 
 212              		.loc 1 59 26 is_stmt 0
 213 0132 8145     		li	a1,0
 214 0134 13850C40 		addi	a0,s9,1024
 215 0138 97000000 		call	adc_inserted_data_read
 215      E7800000 
 216              	.LVL26:
 217 0140 2A8D     		mv	s10,a0
 218              	.LVL27:
  61:main.c        ****               adc_flag_clear(ADC0, ADC_FLAG_EOIC);
 219              		.loc 1 61 15 is_stmt 1
 220 0142 8945     		li	a1,2
 221 0144 13850C40 		addi	a0,s9,1024
 222 0148 97000000 		call	adc_flag_clear
 222      E7800000 
 223              	.LVL28:
  62:main.c        **** 
 224              		.loc 1 62 15
 225 0150 13850C40 		addi	a0,s9,1024
 226 0154 9145     		li	a1,4
 227 0156 97000000 		call	adc_flag_clear
 227      E7800000 
 228              	.LVL29:
  64:main.c        **** 
 229              		.loc 1 64 15
  64:main.c        **** 
 230              		.loc 1 64 30 is_stmt 0
 231 015e 13050068 		li	a0,1664
  64:main.c        **** 
 232              		.loc 1 64 38
 233 0162 9547     		li	a5,5
  64:main.c        **** 
 234              		.loc 1 64 30
 235 0164 3305A541 		sub	a0,a0,s10
  64:main.c        **** 
 236              		.loc 1 64 38
 237 0168 3345F502 		div	a0,a0,a5
  66:main.c        ****               if (tmpr < 0)
 238              		.loc 1 66 19
 239 016c 9306B002 		li	a3,43
  64:main.c        **** 
 240              		.loc 1 64 20
 241 0170 93079501 		addi	a5,a0,25
 242              	.LVL30:
  66:main.c        ****               if (tmpr < 0)
 243              		.loc 1 66 15 is_stmt 1
  67:main.c        ****               {
 244              		.loc 1 67 15
  67:main.c        ****               {
 245              		.loc 1 67 18 is_stmt 0
 246 0174 63D60700 		bge	a5,zero,.L7
  69:main.c        ****                 tmpr = -tmpr; // Make tmpr positive for consistent handling
GAS LISTING C:\Users\kasie\AppData\Local\Temp\cc81Bn94.s 			page 9


 247              		.loc 1 69 17 is_stmt 1
 248              	.LVL31:
  70:main.c        ****               }
 249              		.loc 1 70 17
  70:main.c        ****               }
 250              		.loc 1 70 22 is_stmt 0
 251 0178 9D57     		li	a5,-25
 252              	.LVL32:
 253 017a 898F     		sub	a5,a5,a0
 254              	.LVL33:
  69:main.c        ****                 tmpr = -tmpr; // Make tmpr positive for consistent handling
 255              		.loc 1 69 22
 256 017c 9306D002 		li	a3,45
 257              	.LVL34:
 258              	.L7:
  73:main.c        ****               if (tmpr >= 100)
 259              		.loc 1 73 15 is_stmt 1
  74:main.c        ****               {
 260              		.loc 1 74 15
  74:main.c        ****               {
 261              		.loc 1 74 18 is_stmt 0
 262 0180 13063006 		li	a2,99
  73:main.c        ****               if (tmpr >= 100)
 263              		.loc 1 73 19
 264 0184 13070003 		li	a4,48
  74:main.c        ****               {
 265              		.loc 1 74 18
 266 0188 6358F600 		ble	a5,a2,.L8
  76:main.c        ****                 tmpr = tmpr % 100; // Extract the remaining two digits
 267              		.loc 1 76 17 is_stmt 1
 268              	.LVL35:
  77:main.c        ****               }
 269              		.loc 1 77 17
  77:main.c        ****               }
 270              		.loc 1 77 22 is_stmt 0
 271 018c 13074006 		li	a4,100
 272 0190 B3E7E702 		rem	a5,a5,a4
 273              	.LVL36:
  76:main.c        ****                 tmpr = tmpr % 100; // Extract the remaining two digits
 274              		.loc 1 76 31
 275 0194 13071003 		li	a4,49
 276              	.LVL37:
 277              	.L8:
  80:main.c        **** 
 278              		.loc 1 80 15 is_stmt 1
  82:main.c        ****               unitsDigit = (tmpr % 10) + '0'; // Seperate into their own char
 279              		.loc 1 82 15
  83:main.c        **** 
 280              		.loc 1 83 15
  85:main.c        ****               transmitData[1] = 'D';
 281              		.loc 1 85 15
  86:main.c        ****               transmitData[2] = sign;
 282              		.loc 1 86 15
  88:main.c        ****               transmitData[4] = tensDigit;
 283              		.loc 1 88 31 is_stmt 0
 284 0198 A30FE100 		sb	a4,31(sp)
  82:main.c        ****               unitsDigit = (tmpr % 10) + '0'; // Seperate into their own char
GAS LISTING C:\Users\kasie\AppData\Local\Temp\cc81Bn94.s 			page 10


 285              		.loc 1 82 33
 286 019c 2947     		li	a4,10
 287              	.LVL38:
  87:main.c        ****               transmitData[3] = hundredsDigit;
 288              		.loc 1 87 31
 289 019e 230FD100 		sb	a3,30(sp)
  85:main.c        ****               transmitData[1] = 'D';
 290              		.loc 1 85 31
 291 01a2 231E4101 		sh	s4,28(sp)
  87:main.c        ****               transmitData[3] = hundredsDigit;
 292              		.loc 1 87 15 is_stmt 1
  88:main.c        ****               transmitData[4] = tensDigit;
 293              		.loc 1 88 15
  89:main.c        ****               transmitData[5] = unitsDigit;
 294              		.loc 1 89 15
  91:main.c        **** 
 295              		.loc 1 91 31 is_stmt 0
 296 01a6 2301E102 		sb	a4,34(sp)
  82:main.c        ****               unitsDigit = (tmpr % 10) + '0'; // Seperate into their own char
 297              		.loc 1 82 33
 298 01aa B3C6E702 		div	a3,a5,a4
 299              	.LVL39:
  83:main.c        **** 
 300              		.loc 1 83 34
 301 01ae B3E7E702 		rem	a5,a5,a4
 302              	.LVL40:
  82:main.c        ****               unitsDigit = (tmpr % 10) + '0'; // Seperate into their own char
 303              		.loc 1 82 25
 304 01b2 93860603 		addi	a3,a3,48
  89:main.c        ****               transmitData[5] = unitsDigit;
 305              		.loc 1 89 31
 306 01b6 2300D102 		sb	a3,32(sp)
  90:main.c        ****               transmitData[6] = 10;
 307              		.loc 1 90 15 is_stmt 1
  83:main.c        **** 
 308              		.loc 1 83 26 is_stmt 0
 309 01ba 93870703 		addi	a5,a5,48
  90:main.c        ****               transmitData[6] = 10;
 310              		.loc 1 90 31
 311 01be A300F102 		sb	a5,33(sp)
  91:main.c        **** 
 312              		.loc 1 91 15 is_stmt 1
  93:main.c        ****             }
 313              		.loc 1 93 15
 314              	.LVL41:
 315              	.L22:
 316              	.LBE9:
 105:main.c        ****         }
 317              		.loc 1 105 11
 105:main.c        ****         }
 318              		.loc 1 105 27 is_stmt 0
 319 01c2 054D     		li	s10,1
 320              	.LVL42:
 321              	.L5:
 109:main.c        ****       {
 322              		.loc 1 109 7 is_stmt 1
 109:main.c        ****       {
GAS LISTING C:\Users\kasie\AppData\Local\Temp\cc81Bn94.s 			page 11


 323              		.loc 1 109 11 is_stmt 0
 324 01c4 9545     		li	a1,5
 325 01c6 4A85     		mv	a0,s2
 326 01c8 97000000 		call	usart_flag_get
 326      E7800000 
 327              	.LVL43:
 109:main.c        ****       {
 328              		.loc 1 109 10
 329 01d0 E30505EC 		beq	a0,zero,.L3
 330 01d4 BD45     		li	a1,15
 331 01d6 B385B902 		mul	a1,s3,a1
 332              	.LBB10:
 111:main.c        **** 
 333              		.loc 1 111 28
 334 01da 4A85     		mv	a0,s2
 335 01dc A94D     		li	s11,10
 336 01de 2EC6     		sw	a1,12(sp)
 111:main.c        **** 
 337              		.loc 1 111 9 is_stmt 1
 111:main.c        **** 
 338              		.loc 1 111 28 is_stmt 0
 339 01e0 97000000 		call	usart_data_receive
 339      E7800000 
 340              	.LVL44:
 113:main.c        **** 
 341              		.loc 1 113 9 is_stmt 1
 113:main.c        **** 
 342              		.loc 1 113 48 is_stmt 0
 343 01e8 93172400 		slli	a5,s0,2
 344 01ec 9800     		addi	a4,sp,64
 345 01ee BA97     		add	a5,a4,a5
 346 01f0 23A2A7FE 		sw	a0,-28(a5)
 115:main.c        ****         {
 347              		.loc 1 115 9 is_stmt 1
 348 01f4 B30CB403 		mul	s9,s0,s11
 115:main.c        ****         {
 349              		.loc 1 115 12 is_stmt 0
 350 01f8 B245     		lw	a1,12(sp)
 351 01fa 6314B509 		bne	a0,s11,.L11
 117:main.c        ****               receivedDataArray[1] == 'D' &&
 352              		.loc 1 117 11 is_stmt 1
 353              	.LBB7:
 117:main.c        ****               receivedDataArray[1] == 'D' &&
 354              		.loc 1 117 14 is_stmt 0
 355 01fe 1257     		lw	a4,36(sp)
 356 0200 93079004 		li	a5,73
 357 0204 6319F706 		bne	a4,a5,.L12
 117:main.c        ****               receivedDataArray[1] == 'D' &&
 358              		.loc 1 117 43 discriminator 1
 359 0208 2257     		lw	a4,40(sp)
 360 020a 93074004 		li	a5,68
 361 020e 6314F706 		bne	a4,a5,.L12
 118:main.c        ****               (receivedDataArray[2] == '+' || receivedDataArray[2] == '-') &&
 362              		.loc 1 118 43
 363 0212 B257     		lw	a5,44(sp)
 364 0214 938757FD 		addi	a5,a5,-43
 365 0218 F59B     		andi	a5,a5,-3
GAS LISTING C:\Users\kasie\AppData\Local\Temp\cc81Bn94.s 			page 12


 366 021a B1EF     		bne	a5,zero,.L12
 119:main.c        ****               isdigit(receivedDataArray[3]) && // Check if it's a digit '0' to '9'
 367              		.loc 1 119 76 discriminator 1
 368 021c 4257     		lw	a4,48(sp)
 369 021e A547     		li	a5,9
 370 0220 130707FD 		addi	a4,a4,-48
 371 0224 63E9E704 		bgtu	a4,a5,.L12
 120:main.c        ****               isdigit(receivedDataArray[4]) &&
 372              		.loc 1 120 45
 373 0228 5257     		lw	a4,52(sp)
 374 022a 130707FD 		addi	a4,a4,-48
 375 022e 63E4E704 		bgtu	a4,a5,.L12
 121:main.c        ****               isdigit(receivedDataArray[5]))
 376              		.loc 1 121 45
 377 0232 6257     		lw	a4,56(sp)
 378 0234 130707FD 		addi	a4,a4,-48
 379 0238 63EFE702 		bgtu	a4,a5,.L12
 124:main.c        ****           }
 380              		.loc 1 124 13 is_stmt 1
 381 023c C166     		li	a3,65536
 382 023e 0547     		li	a4,1
 383 0240 FD16     		addi	a3,a3,-1
 384 0242 13060C00 		addi	a2,s8,%lo(.LC2)
 385              	.L24:
 386              		.loc 1 128 13 is_stmt 0
 387 0246 6685     		mv	a0,s9
 388              	.LVL45:
 389 0248 97000000 		call	LCD_ShowStr
 389      E7800000 
 390              	.LVL46:
 391              	.LBE7:
 129:main.c        ****           }
 130:main.c        **** 
 131:main.c        ****           currentReceiveIndex = 0; // Reset
 392              		.loc 1 131 11 is_stmt 1
 132:main.c        ****           currentLine++;           // Move down screen
 393              		.loc 1 132 11
 394              		.loc 1 132 22 is_stmt 0
 395 0250 8509     		addi	s3,s3,1
 396              	.LVL47:
 131:main.c        ****           currentLine++;           // Move down screen
 397              		.loc 1 131 31
 398 0252 0144     		li	s0,0
 399              	.LVL48:
 400 0254 99B5     		j	.L3
 401              	.LVL49:
 402              	.L6:
 403              	.LBE10:
  97:main.c        ****         {
 404              		.loc 1 97 14 is_stmt 1
  97:main.c        ****         {
 405              		.loc 1 97 17 is_stmt 0
 406 0256 B547     		li	a5,13
  99:main.c        ****           transmitDataNow = TRUE;
 407              		.loc 1 99 11
 408 0258 93050B00 		addi	a1,s6,%lo(.LC0)
  97:main.c        ****         {
GAS LISTING C:\Users\kasie\AppData\Local\Temp\cc81Bn94.s 			page 13


 409              		.loc 1 97 17
 410 025c 6307F500 		beq	a0,a5,.L23
 102:main.c        ****         {
 411              		.loc 1 102 14 is_stmt 1
 102:main.c        ****         {
 412              		.loc 1 102 17 is_stmt 0
 413 0260 B947     		li	a5,14
 414 0262 E311F5F6 		bne	a0,a5,.L5
 104:main.c        ****           transmitDataNow = TRUE;
 415              		.loc 1 104 11 is_stmt 1
 416 0266 93850A00 		addi	a1,s5,%lo(.LC1)
 417              	.L23:
 418 026a 6808     		addi	a0,sp,28
 419              	.LVL50:
 420 026c 97000000 		call	strcpy
 420      E7800000 
 421              	.LVL51:
 422 0274 B9B7     		j	.L22
 423              	.LVL52:
 424              	.L12:
 425              	.LBB11:
 426              	.LBB8:
 128:main.c        ****           }
 427              		.loc 1 128 13
 428 0276 C166     		li	a3,65536
 429 0278 0547     		li	a4,1
 430 027a FD16     		addi	a3,a3,-1
 431 027c 13860B00 		addi	a2,s7,%lo(.LC3)
 432 0280 D9B7     		j	.L24
 433              	.L11:
 434              	.LBE8:
 133:main.c        ****         }
 134:main.c        ****         else
 135:main.c        ****         {
 136:main.c        ****           LCD_ShowChar(currentReceiveIndex * 10, currentLine * 15, receivedData, TRANSPARENT, WHITE
 435              		.loc 1 136 11
 436 0282 4167     		li	a4,65536
 437 0284 1376F50F 		andi	a2,a0,0xff
 438 0288 7D17     		addi	a4,a4,-1
 439 028a 8546     		li	a3,1
 440 028c 6685     		mv	a0,s9
 441              	.LVL53:
 442 028e 97000000 		call	LCD_ShowChar
 442      E7800000 
 443              	.LVL54:
 137:main.c        ****           currentReceiveIndex++;                                                                   
 444              		.loc 1 137 11
 445              		.loc 1 137 30 is_stmt 0
 446 0296 0504     		addi	s0,s0,1
 447              	.LVL55:
 448 0298 09B5     		j	.L3
 449              	.LBE11:
 450              	.LBE13:
 451              		.cfi_endproc
 452              	.LFE3:
 454              		.section	.rodata.main.str1.4,"aMS",@progbits,1
 455              		.align	2
GAS LISTING C:\Users\kasie\AppData\Local\Temp\cc81Bn94.s 			page 14


 456              	.LC0:
 457 0000 49442D30 		.string	"ID-000\n"
 457      30300A00 
 458              	.LC1:
 459 0008 49442A30 		.string	"ID*000\n"
 459      30300A00 
 460              	.LC2:
 461 0010 204F4B21 		.string	" OK!"
 461      00
 462 0015 000000   		.zero	3
 463              	.LC3:
 464 0018 20455252 		.string	" ERR"
 464      00
 465              		.text
 466              	.Letext0:
 467              		.file 2 "c:\\hukas\\code\\repositories\\toolchain-gd32v-v202-win\\compiler\\riscv64-unknown-elf\\i
 468              		.file 3 "c:\\hukas\\code\\repositories\\toolchain-gd32v-v202-win\\compiler\\riscv64-unknown-elf\\i
 469              		.file 4 "./../../firmware/GD32VF103_standard_peripheral/gd32vf103.h"
 470              		.file 5 "./../../firmware/GD32VF103_standard_peripheral/Include/gd32vf103_usart.h"
 471              		.file 6 "c:\\hukas\\code\\repositories\\toolchain-gd32v-v202-win\\compiler\\lib\\gcc\\riscv64-unkn
 472              		.file 7 "c:\\hukas\\code\\repositories\\toolchain-gd32v-v202-win\\compiler\\riscv64-unknown-elf\\i
 473              		.file 8 "c:\\hukas\\code\\repositories\\toolchain-gd32v-v202-win\\compiler\\riscv64-unknown-elf\\i
 474              		.file 9 "c:\\hukas\\code\\repositories\\toolchain-gd32v-v202-win\\compiler\\riscv64-unknown-elf\\i
 475              		.file 10 "./../../firmware/GD32VF103_standard_peripheral/system_gd32vf103.h"
 476              		.file 11 "c:\\hukas\\code\\repositories\\toolchain-gd32v-v202-win\\compiler\\riscv64-unknown-elf\\
 477              		.file 12 "lcd.h"
 478              		.file 13 "./../../firmware/GD32VF103_standard_peripheral/Include/gd32vf103_adc.h"
 479              		.file 14 "drivers.h"
 480              		.file 15 "c:\\hukas\\code\\repositories\\toolchain-gd32v-v202-win\\compiler\\riscv64-unknown-elf\\
 481              		.file 16 "adc.h"
 482              		.file 17 "usart.h"
 483              		.file 18 "./../../firmware/GD32VF103_standard_peripheral/Include/gd32vf103_eclic.h"
 484              		.file 19 "<built-in>"
GAS LISTING C:\Users\kasie\AppData\Local\Temp\cc81Bn94.s 			page 15

