GAS LISTING C:\Users\kasie\AppData\Local\Temp\cci84oMP.s 			page 1


   1              		.file	"main.c"
   2              		.option nopic
   3              		.attribute arch, "rv32i2p0_m2p0_a2p0_c2p0"
   4              		.attribute unaligned_access, 0
   5              		.attribute stack_align, 16
   6              		.text
   7              	.Ltext0:
   8              		.cfi_sections	.debug_frame
   9              		.section	.text.startup.main,"ax",@progbits
  10              		.align	1
  11              		.globl	main
  13              	main:
  14              	.LFB2:
  15              		.file 1 "main.c"
   1:main.c        **** #include "gd32vf103.h"
   2:main.c        **** #include "drivers.h"
   3:main.c        **** #include "lcd.h"
   4:main.c        **** 
   5:main.c        **** int main(void)
   6:main.c        **** {
  16              		.loc 1 6 1
  17              		.cfi_startproc
   7:main.c        ****   int key;
  18              		.loc 1 7 3
   8:main.c        ****   int lookUpTbl[16] = {1, 4, 7, 14, 2, 5, 8, 0, 3, 6, 9, 15, 10, 11, 12, 13};
  19              		.loc 1 8 3
   9:main.c        ****   char ch[] = {126, 127, 128, 129, 130};
  20              		.loc 1 9 3
  21              	.LVL0:
  10:main.c        **** 
  11:main.c        ****   t5omsi();                // Initialize timer5 1kHz
  22              		.loc 1 11 3
   6:main.c        ****   int key;
  23              		.loc 1 6 1 is_stmt 0
  24 0000 4111     		addi	sp,sp,-16
  25              	.LCFI0:
  26              		.cfi_def_cfa_offset 16
  27 0002 06C6     		sw	ra,12(sp)
  28 0004 22C4     		sw	s0,8(sp)
  29 0006 26C2     		sw	s1,4(sp)
  30 0008 4AC0     		sw	s2,0(sp)
  31              		.cfi_offset 1, -4
  32              		.cfi_offset 8, -8
  33              		.cfi_offset 9, -12
  34              		.cfi_offset 18, -16
  35              		.loc 1 11 3
  36 000a 97000000 		call	t5omsi
  36      E7800000 
  37              	.LVL1:
  12:main.c        ****   colinit();               // Initialize column toolbox
  38              		.loc 1 12 3 is_stmt 1
  39 0012 97000000 		call	colinit
  39      E7800000 
  40              	.LVL2:
  13:main.c        ****   l88init();               // Initialize 8*8 led toolbox
  41              		.loc 1 13 3
  42 001a 97000000 		call	l88init
GAS LISTING C:\Users\kasie\AppData\Local\Temp\cci84oMP.s 			page 2


  42      E7800000 
  43              	.LVL3:
  14:main.c        ****   keyinit();               // Initialize keyboard toolbox
  44              		.loc 1 14 3
  45 0022 97000000 		call	keyinit
  45      E7800000 
  46              	.LVL4:
  15:main.c        ****   Lcd_SetType(LCD_NORMAL); // INVERTED);                // or use LCD_INVERTED!
  47              		.loc 1 15 3
  48 002a 0145     		li	a0,0
  49 002c 97000000 		call	Lcd_SetType
  49      E7800000 
  50              	.LVL5:
  16:main.c        ****   Lcd_Init();
  51              		.loc 1 16 3
  17:main.c        ****   LCD_Clear(RED);
  52              		.loc 1 17 3 is_stmt 0
  53 0034 4164     		li	s0,65536
  16:main.c        ****   Lcd_Init();
  54              		.loc 1 16 3
  55 0036 97000000 		call	Lcd_Init
  55      E7800000 
  56              	.LVL6:
  57              		.loc 1 17 3 is_stmt 1
  58 003e 13050480 		addi	a0,s0,-2048
  18:main.c        **** 
  19:main.c        ****   while (1)
  20:main.c        ****   {
  21:main.c        ****     LCD_WR_Queue(); // Manage LCD com queue!
  22:main.c        **** 
  23:main.c        ****     if (t5expq())
  24:main.c        ****     {                   // Manage periodic tasks
  25:main.c        ****       l88row(colset()); // ...8*8LED and Keyboard
  26:main.c        **** 
  27:main.c        ****       if ((key = keyscan()) >= 0)
  28:main.c        ****       { // ...Any key pressed?
  29:main.c        ****         switch (key)
  59              		.loc 1 29 9 is_stmt 0
  60 0042 B7040000 		lui	s1,%hi(.L6)
  17:main.c        ****   LCD_Clear(RED);
  61              		.loc 1 17 3
  62 0046 97000000 		call	LCD_Clear
  62      E7800000 
  63              	.LVL7:
  64              		.loc 1 29 9
  65 004e 2149     		li	s2,8
  66 0050 93840400 		addi	s1,s1,%lo(.L6)
  30:main.c        ****         {
  31:main.c        ****         case 1: // 4 - 100%
  32:main.c        ****           LCD_ShowChar(10, 50, ch[0], OPAQUE, WHITE);
  33:main.c        ****           break;
  34:main.c        ****         case 8: // 3 - 75%
  35:main.c        ****           LCD_ShowChar(10, 50, ch[1], OPAQUE, WHITE);
  36:main.c        ****           break;
  37:main.c        ****         case 4: // 2 - 50%
  38:main.c        ****           LCD_ShowChar(10, 50, ch[2], OPAQUE, WHITE);
  39:main.c        ****           break;
GAS LISTING C:\Users\kasie\AppData\Local\Temp\cci84oMP.s 			page 3


  40:main.c        ****         case 0: // 1 - 25%
  41:main.c        ****           LCD_ShowChar(10, 50, ch[3], OPAQUE, WHITE);
  42:main.c        ****           break;
  43:main.c        ****         case 7: // 0 - 0%
  44:main.c        ****           LCD_ShowChar(10, 50, ch[4], OPAQUE, WHITE);
  67              		.loc 1 44 11
  68 0054 7D14     		addi	s0,s0,-1
  69              	.L4:
  19:main.c        ****   {
  70              		.loc 1 19 3 is_stmt 1
  21:main.c        **** 
  71              		.loc 1 21 5
  72 0056 97000000 		call	LCD_WR_Queue
  72      E7800000 
  73              	.LVL8:
  23:main.c        ****     {                   // Manage periodic tasks
  74              		.loc 1 23 5
  23:main.c        ****     {                   // Manage periodic tasks
  75              		.loc 1 23 9 is_stmt 0
  76 005e 97000000 		call	t5expq
  76      E7800000 
  77              	.LVL9:
  23:main.c        ****     {                   // Manage periodic tasks
  78              		.loc 1 23 8
  79 0066 65D9     		beq	a0,zero,.L4
  25:main.c        **** 
  80              		.loc 1 25 7 is_stmt 1
  81 0068 97000000 		call	colset
  81      E7800000 
  82              	.LVL10:
  83 0070 97000000 		call	l88row
  83      E7800000 
  84              	.LVL11:
  27:main.c        ****       { // ...Any key pressed?
  85              		.loc 1 27 7
  27:main.c        ****       { // ...Any key pressed?
  86              		.loc 1 27 18 is_stmt 0
  87 0078 97000000 		call	keyscan
  87      E7800000 
  88              	.LVL12:
  27:main.c        ****       { // ...Any key pressed?
  89              		.loc 1 27 10
  90 0080 E34B05FC 		blt	a0,zero,.L4
  29:main.c        ****         {
  91              		.loc 1 29 9 is_stmt 1
  92 0084 E369A9FC 		bgtu	a0,s2,.L4
  93 0088 0A05     		slli	a0,a0,2
  94              	.LVL13:
  95 008a 2695     		add	a0,a0,s1
  96 008c 1C41     		lw	a5,0(a0)
  97 008e 8287     		jr	a5
  98              		.section	.rodata.main,"a",@progbits
  99              		.align	2
 100              		.align	2
 101              	.L6:
 102 0000 00000000 		.word	.L10
 103 0004 00000000 		.word	.L9
GAS LISTING C:\Users\kasie\AppData\Local\Temp\cci84oMP.s 			page 4


 104 0008 00000000 		.word	.L4
 105 000c 00000000 		.word	.L4
 106 0010 00000000 		.word	.L8
 107 0014 00000000 		.word	.L4
 108 0018 00000000 		.word	.L4
 109 001c 00000000 		.word	.L7
 110 0020 00000000 		.word	.L5
 111              		.section	.text.startup.main
 112              	.L9:
  32:main.c        ****           break;
 113              		.loc 1 32 11
 114 0090 2287     		mv	a4,s0
 115 0092 8146     		li	a3,0
 116 0094 1306E007 		li	a2,126
 117              	.L14:
 118              		.loc 1 44 11 is_stmt 0
 119 0098 93052003 		li	a1,50
 120 009c 2945     		li	a0,10
 121 009e 97000000 		call	LCD_ShowChar
 121      E7800000 
 122              	.LVL14:
  45:main.c        ****           break;
 123              		.loc 1 45 11 is_stmt 1
 124 00a6 45BF     		j	.L4
 125              	.L5:
  35:main.c        ****           break;
 126              		.loc 1 35 11
 127 00a8 2287     		mv	a4,s0
 128 00aa 8146     		li	a3,0
 129 00ac 1306F007 		li	a2,127
 130 00b0 E5B7     		j	.L14
 131              	.L8:
  38:main.c        ****           break;
 132              		.loc 1 38 11
 133 00b2 2287     		mv	a4,s0
 134 00b4 8146     		li	a3,0
 135 00b6 13060008 		li	a2,128
 136 00ba F9BF     		j	.L14
 137              	.L10:
  41:main.c        ****           break;
 138              		.loc 1 41 11
 139 00bc 2287     		mv	a4,s0
 140 00be 8146     		li	a3,0
 141 00c0 13061008 		li	a2,129
 142 00c4 D1BF     		j	.L14
 143              	.L7:
  44:main.c        ****           break;
 144              		.loc 1 44 11
 145 00c6 2287     		mv	a4,s0
 146 00c8 8146     		li	a3,0
 147 00ca 13062008 		li	a2,130
 148 00ce E9B7     		j	.L14
 149              		.cfi_endproc
 150              	.LFE2:
 152              		.text
 153              	.Letext0:
 154              		.file 2 "c:\\hukas\\code\\repositories\\toolchain-gd32v-v202-win\\compiler\\riscv64-unknown-elf\\i
GAS LISTING C:\Users\kasie\AppData\Local\Temp\cci84oMP.s 			page 5


 155              		.file 3 "c:\\hukas\\code\\repositories\\toolchain-gd32v-v202-win\\compiler\\riscv64-unknown-elf\\i
 156              		.file 4 "c:\\hukas\\code\\repositories\\toolchain-gd32v-v202-win\\compiler\\lib\\gcc\\riscv64-unkn
 157              		.file 5 "c:\\hukas\\code\\repositories\\toolchain-gd32v-v202-win\\compiler\\riscv64-unknown-elf\\i
 158              		.file 6 "c:\\hukas\\code\\repositories\\toolchain-gd32v-v202-win\\compiler\\riscv64-unknown-elf\\i
 159              		.file 7 "c:\\hukas\\code\\repositories\\toolchain-gd32v-v202-win\\compiler\\riscv64-unknown-elf\\i
 160              		.file 8 "./../../firmware/GD32VF103_standard_peripheral/system_gd32vf103.h"
 161              		.file 9 "c:\\hukas\\code\\repositories\\toolchain-gd32v-v202-win\\compiler\\riscv64-unknown-elf\\i
 162              		.file 10 "lcd.h"
 163              		.file 11 "drivers.h"
GAS LISTING C:\Users\kasie\AppData\Local\Temp\cci84oMP.s 			page 6

