GAS LISTING C:\Users\kasie\AppData\Local\Temp\ccmjXK9k.s 			page 1


   1              		.file	"fstat.c"
   2              		.option nopic
   3              		.attribute arch, "rv32i2p0_m2p0_a2p0_c2p0"
   4              		.attribute unaligned_access, 0
   5              		.attribute stack_align, 16
   6              		.text
   7              	.Ltext0:
   8              		.cfi_sections	.debug_frame
   9              		.section	.text._fstat,"ax",@progbits
  10              		.align	1
  11              		.globl	_fstat
  13              	_fstat:
  14              	.LFB1:
  15              		.file 1 "./../../firmware/RISCV/stubs/fstat.c"
   1:./../../firmware/RISCV/stubs/fstat.c **** /* See LICENSE of license details. */
   2:./../../firmware/RISCV/stubs/fstat.c **** 
   3:./../../firmware/RISCV/stubs/fstat.c **** #include <errno.h>
   4:./../../firmware/RISCV/stubs/fstat.c **** #include <unistd.h>
   5:./../../firmware/RISCV/stubs/fstat.c **** #include <sys/stat.h>
   6:./../../firmware/RISCV/stubs/fstat.c **** #include "stub.h"
   7:./../../firmware/RISCV/stubs/fstat.c **** 
   8:./../../firmware/RISCV/stubs/fstat.c **** int _fstat(int fd, struct stat* st)
   9:./../../firmware/RISCV/stubs/fstat.c **** {
  16              		.loc 1 9 1
  17              		.cfi_startproc
  18              	.LVL0:
  10:./../../firmware/RISCV/stubs/fstat.c ****   if (isatty(fd)) {
  19              		.loc 1 10 3
   9:./../../firmware/RISCV/stubs/fstat.c ****   if (isatty(fd)) {
  20              		.loc 1 9 1 is_stmt 0
  21 0000 0111     		addi	sp,sp,-32
  22              	.LCFI0:
  23              		.cfi_def_cfa_offset 32
  24 0002 06CE     		sw	ra,28(sp)
  25              		.cfi_offset 1, -4
   9:./../../firmware/RISCV/stubs/fstat.c ****   if (isatty(fd)) {
  26              		.loc 1 9 1
  27 0004 2EC6     		sw	a1,12(sp)
  28              		.loc 1 10 7
  29 0006 97000000 		call	isatty
  29      E7800000 
  30              	.LVL1:
  31              		.loc 1 10 6
  32 000e 01C9     		beq	a0,zero,.L3
  11:./../../firmware/RISCV/stubs/fstat.c ****     st->st_mode = S_IFCHR;
  33              		.loc 1 11 5 is_stmt 1
  34              		.loc 1 11 17 is_stmt 0
  35 0010 B245     		lw	a1,12(sp)
  36 0012 8967     		li	a5,8192
  12:./../../firmware/RISCV/stubs/fstat.c ****     return 0;
  37              		.loc 1 12 12
  38 0014 0145     		li	a0,0
  11:./../../firmware/RISCV/stubs/fstat.c ****     st->st_mode = S_IFCHR;
  39              		.loc 1 11 17
  40 0016 DCC1     		sw	a5,4(a1)
  41              		.loc 1 12 5 is_stmt 1
  42              	.L1:
GAS LISTING C:\Users\kasie\AppData\Local\Temp\ccmjXK9k.s 			page 2


  13:./../../firmware/RISCV/stubs/fstat.c ****   }
  14:./../../firmware/RISCV/stubs/fstat.c **** 
  15:./../../firmware/RISCV/stubs/fstat.c ****   return _stub(EBADF);
  16:./../../firmware/RISCV/stubs/fstat.c **** }
  43              		.loc 1 16 1 is_stmt 0
  44 0018 F240     		lw	ra,28(sp)
  45              		.cfi_remember_state
  46              		.cfi_restore 1
  47 001a 0561     		addi	sp,sp,32
  48              	.LCFI1:
  49              		.cfi_def_cfa_offset 0
  50              	.LVL2:
  51 001c 8280     		jr	ra
  52              	.LVL3:
  53              	.L3:
  54              	.LCFI2:
  55              		.cfi_restore_state
  15:./../../firmware/RISCV/stubs/fstat.c **** }
  56              		.loc 1 15 10
  57 001e 7D55     		li	a0,-1
  58 0020 E5BF     		j	.L1
  59              		.cfi_endproc
  60              	.LFE1:
  62              		.text
  63              	.Letext0:
  64              		.file 2 "c:\\kasiem\\code\\repo\\toolchain-gd32v-v202-win\\toolchain-gd32v-v202-win\\compiler\\lib
  65              		.file 3 "c:\\kasiem\\code\\repo\\toolchain-gd32v-v202-win\\toolchain-gd32v-v202-win\\compiler\\ris
  66              		.file 4 "c:\\kasiem\\code\\repo\\toolchain-gd32v-v202-win\\toolchain-gd32v-v202-win\\compiler\\ris
  67              		.file 5 "c:\\kasiem\\code\\repo\\toolchain-gd32v-v202-win\\toolchain-gd32v-v202-win\\compiler\\ris
  68              		.file 6 "c:\\kasiem\\code\\repo\\toolchain-gd32v-v202-win\\toolchain-gd32v-v202-win\\compiler\\ris
  69              		.file 7 "c:\\kasiem\\code\\repo\\toolchain-gd32v-v202-win\\toolchain-gd32v-v202-win\\compiler\\ris
  70              		.file 8 "c:\\kasiem\\code\\repo\\toolchain-gd32v-v202-win\\toolchain-gd32v-v202-win\\compiler\\ris
  71              		.file 9 "c:\\kasiem\\code\\repo\\toolchain-gd32v-v202-win\\toolchain-gd32v-v202-win\\compiler\\ris
  72              		.file 10 "c:\\kasiem\\code\\repo\\toolchain-gd32v-v202-win\\toolchain-gd32v-v202-win\\compiler\\ri
  73              		.file 11 "c:\\kasiem\\code\\repo\\toolchain-gd32v-v202-win\\toolchain-gd32v-v202-win\\compiler\\ri
  74              		.file 12 "c:\\kasiem\\code\\repo\\toolchain-gd32v-v202-win\\toolchain-gd32v-v202-win\\compiler\\ri
  75              		.file 13 "./../../firmware/RISCV/stubs/stub.h"
GAS LISTING C:\Users\kasie\AppData\Local\Temp\ccmjXK9k.s 			page 3

