GAS LISTING C:\Users\kasie\AppData\Local\Temp\ccE4WGal.s 			page 1


   1              		.file	"main.c"
   2              		.option nopic
   3              		.attribute arch, "rv32i2p0_m2p0_a2p0_c2p0"
   4              		.attribute unaligned_access, 0
   5              		.attribute stack_align, 16
   6              		.text
   7              	.Ltext0:
   8              		.cfi_sections	.debug_frame
   9              		.section	.text.startup.main,"ax",@progbits
  10              		.align	1
  11              		.globl	main
  13              	main:
  14              	.LFB2:
  15              		.file 1 "main.c"
   1:main.c        **** #include "gd32vf103.h"
   2:main.c        **** #include "drivers.h"
   3:main.c        **** #include "adc.h"
   4:main.c        **** #include "pwm.h"
   5:main.c        **** 
   6:main.c        **** int main(void)
   7:main.c        **** {
  16              		.loc 1 7 1
  17              		.cfi_startproc
   8:main.c        ****   int alive = 1, playerPosition = 0, currentObstacle = 0, points = 0, ms = 0, potentiometerValue;
  18              		.loc 1 8 3
  19              	.LVL0:
   9:main.c        ****   int obstacles[50] = {192, 192, 193, 192, 4, 4, 0, 128, 159, 17, 21, 17, 31, 0, 8, 0, 194, 194, 19
  20              		.loc 1 9 3
   7:main.c        ****   int alive = 1, playerPosition = 0, currentObstacle = 0, points = 0, ms = 0, potentiometerValue;
  21              		.loc 1 7 1 is_stmt 0
  22 0000 6D71     		addi	sp,sp,-272
  23              	.LCFI0:
  24              		.cfi_def_cfa_offset 272
  25              		.loc 1 9 7
  26 0002 1306000B 		li	a2,176
  27 0006 8145     		li	a1,0
  28 0008 0810     		addi	a0,sp,32
   7:main.c        ****   int alive = 1, playerPosition = 0, currentObstacle = 0, points = 0, ms = 0, potentiometerValue;
  29              		.loc 1 7 1
  30 000a 23261110 		sw	ra,268(sp)
  31 000e 23248110 		sw	s0,264(sp)
  32 0012 23229110 		sw	s1,260(sp)
  33 0016 23202111 		sw	s2,256(sp)
  34 001a CEDF     		sw	s3,252(sp)
  35 001c D2DD     		sw	s4,248(sp)
  36 001e D6DB     		sw	s5,244(sp)
  37 0020 DED7     		sw	s7,236(sp)
  38 0022 E2D5     		sw	s8,232(sp)
  39 0024 E6D3     		sw	s9,228(sp)
  40 0026 DAD9     		sw	s6,240(sp)
  41 0028 EAD1     		sw	s10,224(sp)
  42 002a EECF     		sw	s11,220(sp)
  43              		.cfi_offset 1, -4
  44              		.cfi_offset 8, -8
  45              		.cfi_offset 9, -12
  46              		.cfi_offset 18, -16
  47              		.cfi_offset 19, -20
GAS LISTING C:\Users\kasie\AppData\Local\Temp\ccE4WGal.s 			page 2


  48              		.cfi_offset 20, -24
  49              		.cfi_offset 21, -28
  50              		.cfi_offset 23, -36
  51              		.cfi_offset 24, -40
  52              		.cfi_offset 25, -44
  53              		.cfi_offset 22, -32
  54              		.cfi_offset 26, -48
  55              		.cfi_offset 27, -52
  56              		.loc 1 9 7
  57 002c 97000000 		call	memset
  57      E7800000 
  58              	.LVL1:
  59 0034 93060008 		li	a3,128
  60 0038 36D2     		sw	a3,36(sp)
  61 003a 5546     		li	a2,21
  62 003c 9306F009 		li	a3,159
  63 0040 36D4     		sw	a3,40(sp)
  64 0042 32D8     		sw	a2,48(sp)
  65 0044 C546     		li	a3,17
  66 0046 2146     		li	a2,8
  67 0048 36D6     		sw	a3,44(sp)
  68 004a 36DA     		sw	a3,52(sp)
  69 004c B2C0     		sw	a2,64(sp)
  70 004e FD46     		li	a3,31
  71 0050 B2D6     		sw	a2,108(sp)
  72 0052 B2D8     		sw	a2,112(sp)
  73 0054 0546     		li	a2,1
  74 0056 13053002 		li	a0,35
  75 005a 36DC     		sw	a3,56(sp)
  76 005c B2DA     		sw	a2,116(sp)
  77 005e 9306200C 		li	a3,194
  78 0062 B2DC     		sw	a2,120(sp)
  79 0064 1306800F 		li	a2,248
  80 0068 9307000C 		li	a5,192
  81 006c 1147     		li	a4,4
  82 006e 9305100C 		li	a1,193
  83 0072 1308800A 		li	a6,168
  84 0076 B6C4     		sw	a3,72(sp)
  85 0078 B6C6     		sw	a3,76(sp)
  86 007a AAD2     		sw	a0,100(sp)
  87 007c 8D46     		li	a3,3
  88 007e AAD4     		sw	a0,104(sp)
  89 0080 B2DE     		sw	a2,124(sp)
  90 0082 13058008 		li	a0,136
  91 0086 32C7     		sw	a2,140(sp)
  92 0088 13060004 		li	a2,64
  93 008c 3EC4     		sw	a5,8(sp)
  94 008e 3EC6     		sw	a5,12(sp)
  95 0090 2EC8     		sw	a1,16(sp)
  96 0092 3ECA     		sw	a5,20(sp)
  97 0094 3ACC     		sw	a4,24(sp)
  98 0096 3ACE     		sw	a4,28(sp)
  99 0098 BEC8     		sw	a5,80(sp)
 100 009a BECA     		sw	a5,84(sp)
 101 009c B6CE     		sw	a3,92(sp)
 102 009e B6D0     		sw	a3,96(sp)
 103 00a0 2AC1     		sw	a0,128(sp)
GAS LISTING C:\Users\kasie\AppData\Local\Temp\ccE4WGal.s 			page 3


 104 00a2 42C3     		sw	a6,132(sp)
 105 00a4 2AC5     		sw	a0,136(sp)
 106 00a6 32C9     		sw	a2,144(sp)
 107 00a8 32CB     		sw	a2,148(sp)
 108 00aa 4D46     		li	a2,19
 109 00ac 3ACF     		sw	a4,156(sp)
 110 00ae 32D1     		sw	a2,160(sp)
 111 00b0 32D3     		sw	a2,164(sp)
 112 00b2 36D5     		sw	a3,168(sp)
 113 00b4 3EDB     		sw	a5,180(sp)
 114 00b6 3EDD     		sw	a5,184(sp)
 115 00b8 2EDF     		sw	a1,188(sp)
 116 00ba BEC1     		sw	a5,192(sp)
 117 00bc BAC3     		sw	a4,196(sp)
 118 00be BAC5     		sw	a4,200(sp)
  10:main.c        **** 
  11:main.c        ****   t5omsi();           // Initialize timer5 1kHz
 119              		.loc 1 11 3 is_stmt 1
 120 00c0 97000000 		call	t5omsi
 120      E7800000 
 121              	.LVL2:
  12:main.c        ****   colinit();          // Initialize column toolbox
 122              		.loc 1 12 3
 123 00c8 97000000 		call	colinit
 123      E7800000 
 124              	.LVL3:
  13:main.c        ****   l88init();          // Initialize 8*8 led toolbox
 125              		.loc 1 13 3
 126 00d0 97000000 		call	l88init
 126      E7800000 
 127              	.LVL4:
  14:main.c        ****   keyinit();          // Initialize keyboard toolbox
 128              		.loc 1 14 3
 129 00d8 97000000 		call	keyinit
 129      E7800000 
 130              	.LVL5:
  15:main.c        ****   ADC3powerUpInit(0); // Initialize ADC0, Ch3
 131              		.loc 1 15 3
 132 00e0 0145     		li	a0,0
  16:main.c        **** 
  17:main.c        ****   while (1) // Infinite loop
  18:main.c        ****   {
  19:main.c        ****     if (adc_flag_get(ADC0, ADC_FLAG_EOC) == SET) // If ADC is done
 133              		.loc 1 19 9 is_stmt 0
 134 00e2 B7240140 		li	s1,1073815552
  15:main.c        ****   ADC3powerUpInit(0); // Initialize ADC0, Ch3
 135              		.loc 1 15 3
 136 00e6 97000000 		call	ADC3powerUpInit
 136      E7800000 
 137              	.LVL6:
   8:main.c        ****   int obstacles[50] = {192, 192, 193, 192, 4, 4, 0, 128, 159, 17, 21, 17, 31, 0, 8, 0, 194, 194, 19
 138              		.loc 1 8 71
 139 00ee 0144     		li	s0,0
   8:main.c        ****   int obstacles[50] = {192, 192, 193, 192, 4, 4, 0, 128, 159, 17, 21, 17, 31, 0, 8, 0, 194, 194, 19
 140              		.loc 1 8 59
 141 00f0 8149     		li	s3,0
   8:main.c        ****   int obstacles[50] = {192, 192, 193, 192, 4, 4, 0, 128, 159, 17, 21, 17, 31, 0, 8, 0, 194, 194, 19
GAS LISTING C:\Users\kasie\AppData\Local\Temp\ccE4WGal.s 			page 4


 142              		.loc 1 8 38
 143 00f2 0149     		li	s2,0
   8:main.c        ****   int obstacles[50] = {192, 192, 193, 192, 4, 4, 0, 128, 159, 17, 21, 17, 31, 0, 8, 0, 194, 194, 19
 144              		.loc 1 8 7
 145 00f4 054A     		li	s4,1
 146              		.loc 1 19 9
 147 00f6 93840440 		addi	s1,s1,1024
 148              		.loc 1 19 8
 149 00fa 854A     		li	s5,1
  20:main.c        ****     {
  21:main.c        ****       potentiometerValue = adc_regular_data_read(ADC0); // Get value of potentiometer
  22:main.c        ****       adc_flag_clear(ADC0, ADC_FLAG_EOC);               // ......clear IF
  23:main.c        ****     }
  24:main.c        **** 
  25:main.c        ****     if (t5expq())
  26:main.c        ****     {                   // Manage periodic tasks
  27:main.c        ****       l88row(colset()); // ...8*8LED and Keyboard
  28:main.c        ****       ms++;             // One millisecond
  29:main.c        **** 
  30:main.c        ****       playerPosition = 7 - ((potentiometerValue * 8) / 4096); // Update the position of the player 
 150              		.loc 1 30 54
 151 00fc 930B0020 		li	s7,512
  31:main.c        ****       l88mem(7, 1 << playerPosition);                         // Display the position of the player
  32:main.c        **** 
  33:main.c        ****       if (ms == (500 - (points * 2))) // If half a second has passed minus the score of the player,
 152              		.loc 1 33 10
 153 0100 130CA00F 		li	s8,250
  34:main.c        ****       {
  35:main.c        ****         ms = 0; // Reset timer
  36:main.c        **** 
  37:main.c        ****         if (alive) // If the player is alive
  38:main.c        ****         {
  39:main.c        ****           for (int counter = 0; counter < 7; counter++)
  40:main.c        ****           {
  41:main.c        ****             l88mem(counter, obstacles[currentObstacle + 7 - counter]); // Go through each row of th
  42:main.c        ****           }
  43:main.c        **** 
  44:main.c        ****           currentObstacle++; // Move to the next obstacle
  45:main.c        ****           points++;          // Increase player points
  46:main.c        ****         }
  47:main.c        **** 
  48:main.c        ****         if ((obstacles[currentObstacle] & (1 << (playerPosition))) > 0) // If the position of the p
  49:main.c        ****         {
  50:main.c        ****           alive = 0; // Set the player to dead
  51:main.c        **** 
  52:main.c        ****           for (int counter = 0; counter < 7; counter++)
  53:main.c        ****           {
  54:main.c        ****             l88mem(counter, 0); // Go through each row of the display and clear it
  55:main.c        ****           }
  56:main.c        **** 
  57:main.c        ****           l88mem(3, points); // Display the player's score
  58:main.c        ****         }
  59:main.c        **** 
  60:main.c        ****         if (currentObstacle == 43) // If the last obstacle has been displayed
 154              		.loc 1 60 12
 155 0104 930CB002 		li	s9,43
 156              	.LVL7:
GAS LISTING C:\Users\kasie\AppData\Local\Temp\ccE4WGal.s 			page 5


 157              	.L2:
  17:main.c        ****   {
 158              		.loc 1 17 3 is_stmt 1
  19:main.c        ****     {
 159              		.loc 1 19 5
  19:main.c        ****     {
 160              		.loc 1 19 9 is_stmt 0
 161 0108 8945     		li	a1,2
 162 010a 2685     		mv	a0,s1
 163 010c 97000000 		call	adc_flag_get
 163      E7800000 
 164              	.LVL8:
  19:main.c        ****     {
 165              		.loc 1 19 8
 166 0114 631E5501 		bne	a0,s5,.L3
  21:main.c        ****       adc_flag_clear(ADC0, ADC_FLAG_EOC);               // ......clear IF
 167              		.loc 1 21 7 is_stmt 1
  21:main.c        ****       adc_flag_clear(ADC0, ADC_FLAG_EOC);               // ......clear IF
 168              		.loc 1 21 28 is_stmt 0
 169 0118 2685     		mv	a0,s1
 170 011a 97000000 		call	adc_regular_data_read
 170      E7800000 
 171              	.LVL9:
 172 0122 2A8B     		mv	s6,a0
 173              	.LVL10:
  22:main.c        ****     }
 174              		.loc 1 22 7 is_stmt 1
 175 0124 8945     		li	a1,2
 176 0126 2685     		mv	a0,s1
 177              	.LVL11:
 178 0128 97000000 		call	adc_flag_clear
 178      E7800000 
 179              	.LVL12:
 180              	.L3:
  25:main.c        ****     {                   // Manage periodic tasks
 181              		.loc 1 25 5
  25:main.c        ****     {                   // Manage periodic tasks
 182              		.loc 1 25 9 is_stmt 0
 183 0130 97000000 		call	t5expq
 183      E7800000 
 184              	.LVL13:
  25:main.c        ****     {                   // Manage periodic tasks
 185              		.loc 1 25 8
 186 0138 61D9     		beq	a0,zero,.L2
  27:main.c        ****       ms++;             // One millisecond
 187              		.loc 1 27 7
 188 013a 97000000 		call	colset
 188      E7800000 
 189              	.LVL14:
 190 0142 97000000 		call	l88row
 190      E7800000 
 191              	.LVL15:
  30:main.c        ****       l88mem(7, 1 << playerPosition);                         // Display the position of the player
 192              		.loc 1 30 54
 193 014a B3457B03 		div	a1,s6,s7
  31:main.c        **** 
 194              		.loc 1 31 7
GAS LISTING C:\Users\kasie\AppData\Local\Temp\ccE4WGal.s 			page 6


 195 014e 1D45     		li	a0,7
 196 0150 0504     		addi	s0,s0,1
 197              	.LVL16:
  27:main.c        ****       ms++;             // One millisecond
 198              		.loc 1 27 7 is_stmt 1
  28:main.c        **** 
 199              		.loc 1 28 7
  30:main.c        ****       l88mem(7, 1 << playerPosition);                         // Display the position of the player
 200              		.loc 1 30 7
  31:main.c        **** 
 201              		.loc 1 31 7
  30:main.c        ****       l88mem(7, 1 << playerPosition);                         // Display the position of the player
 202              		.loc 1 30 54 is_stmt 0
 203 0152 B305B040 		neg	a1,a1
  30:main.c        ****       l88mem(7, 1 << playerPosition);                         // Display the position of the player
 204              		.loc 1 30 22
 205 0156 9D05     		addi	a1,a1,7
  31:main.c        **** 
 206              		.loc 1 31 7
 207 0158 339DBA00 		sll	s10,s5,a1
 208 015c EA85     		mv	a1,s10
 209 015e 97000000 		call	l88mem
 209      E7800000 
 210              	.LVL17:
  33:main.c        ****       {
 211              		.loc 1 33 7 is_stmt 1
  33:main.c        ****       {
 212              		.loc 1 33 10 is_stmt 0
 213 0166 B3073C41 		sub	a5,s8,s3
 214 016a 8607     		slli	a5,a5,1
 215 016c 6316F406 		bne	s0,a5,.L5
  35:main.c        **** 
 216              		.loc 1 35 9 is_stmt 1
 217              	.LVL18:
  37:main.c        ****         {
 218              		.loc 1 37 9
  37:main.c        ****         {
 219              		.loc 1 37 12 is_stmt 0
 220 0170 63040A02 		beq	s4,zero,.L6
 221 0174 13142900 		slli	s0,s2,2
 222 0178 3C00     		addi	a5,sp,8
 223 017a 3E94     		add	s0,a5,s0
 224              	.LBB2:
  39:main.c        ****           {
 225              		.loc 1 39 20
 226 017c 814D     		li	s11,0
 227              	.L7:
 228              	.LVL19:
  41:main.c        ****           }
 229              		.loc 1 41 13 is_stmt 1 discriminator 3
 230 017e 4C4C     		lw	a1,28(s0)
 231 0180 6E85     		mv	a0,s11
  39:main.c        ****           {
 232              		.loc 1 39 53 is_stmt 0 discriminator 3
 233 0182 850D     		addi	s11,s11,1
 234              	.LVL20:
  41:main.c        ****           }
GAS LISTING C:\Users\kasie\AppData\Local\Temp\ccE4WGal.s 			page 7


 235              		.loc 1 41 13 discriminator 3
 236 0184 97000000 		call	l88mem
 236      E7800000 
 237              	.LVL21:
  39:main.c        ****           {
 238              		.loc 1 39 11 discriminator 3
 239 018c 9D47     		li	a5,7
 240 018e 7114     		addi	s0,s0,-4
 241 0190 E397FDFE 		bne	s11,a5,.L7
 242              	.LBE2:
  44:main.c        ****           points++;          // Increase player points
 243              		.loc 1 44 11 is_stmt 1
  44:main.c        ****           points++;          // Increase player points
 244              		.loc 1 44 26 is_stmt 0
 245 0194 0509     		addi	s2,s2,1
 246              	.LVL22:
  45:main.c        ****         }
 247              		.loc 1 45 11 is_stmt 1
  45:main.c        ****         }
 248              		.loc 1 45 17 is_stmt 0
 249 0196 8509     		addi	s3,s3,1
 250              	.LVL23:
 251              	.L6:
  48:main.c        ****         {
 252              		.loc 1 48 9 is_stmt 1
  48:main.c        ****         {
 253              		.loc 1 48 23 is_stmt 0
 254 0198 93172900 		slli	a5,s2,2
 255 019c 9809     		addi	a4,sp,208
 256 019e BA97     		add	a5,a4,a5
  48:main.c        ****         {
 257              		.loc 1 48 41
 258 01a0 83A587F3 		lw	a1,-200(a5)
 259 01a4 337DBD00 		and	s10,s10,a1
  48:main.c        ****         {
 260              		.loc 1 48 12
 261 01a8 6354A003 		ble	s10,zero,.L8
 262              	.LBB3:
  52:main.c        ****           {
 263              		.loc 1 52 20
 264 01ac 0144     		li	s0,0
  52:main.c        ****           {
 265              		.loc 1 52 11
 266 01ae 1D4A     		li	s4,7
 267              	.LVL24:
 268              	.L9:
  54:main.c        ****           }
 269              		.loc 1 54 13 is_stmt 1 discriminator 3
 270 01b0 2285     		mv	a0,s0
 271 01b2 8145     		li	a1,0
  52:main.c        ****           {
 272              		.loc 1 52 53 is_stmt 0 discriminator 3
 273 01b4 0504     		addi	s0,s0,1
 274              	.LVL25:
  54:main.c        ****           }
 275              		.loc 1 54 13 discriminator 3
 276 01b6 97000000 		call	l88mem
GAS LISTING C:\Users\kasie\AppData\Local\Temp\ccE4WGal.s 			page 8


 276      E7800000 
 277              	.LVL26:
  52:main.c        ****           {
 278              		.loc 1 52 11 discriminator 3
 279 01be E31944FF 		bne	s0,s4,.L9
 280              	.LBE3:
  57:main.c        ****         }
 281              		.loc 1 57 11 is_stmt 1
 282 01c2 CE85     		mv	a1,s3
 283 01c4 0D45     		li	a0,3
 284 01c6 97000000 		call	l88mem
 284      E7800000 
 285              	.LVL27:
  50:main.c        **** 
 286              		.loc 1 50 17 is_stmt 0
 287 01ce 014A     		li	s4,0
 288              	.LVL28:
 289              	.L8:
 290              		.loc 1 60 9 is_stmt 1
  35:main.c        **** 
 291              		.loc 1 35 12 is_stmt 0
 292 01d0 0144     		li	s0,0
 293              		.loc 1 60 12
 294 01d2 63139901 		bne	s2,s9,.L5
  61:main.c        ****         {
  62:main.c        ****           currentObstacle = 0; // Reset the obstacles
 295              		.loc 1 62 27
 296 01d6 0149     		li	s2,0
 297              	.LVL29:
 298              	.L5:
  63:main.c        ****         }
  64:main.c        ****       }
  65:main.c        **** 
  66:main.c        ****       adc_software_trigger_enable(ADC0, // Trigger another ADC conversion!
 299              		.loc 1 66 7 is_stmt 1
 300 01d8 8545     		li	a1,1
 301 01da 2685     		mv	a0,s1
 302 01dc 97000000 		call	adc_software_trigger_enable
 302      E7800000 
 303              	.LVL30:
 304 01e4 15B7     		j	.L2
 305              		.cfi_endproc
 306              	.LFE2:
 308              		.text
 309              	.Letext0:
 310              		.file 2 "c:\\hukas\\code\\repositories\\toolchain-gd32v-v202-win\\compiler\\riscv64-unknown-elf\\i
 311              		.file 3 "c:\\hukas\\code\\repositories\\toolchain-gd32v-v202-win\\compiler\\riscv64-unknown-elf\\i
 312              		.file 4 "drivers.h"
 313              		.file 5 "adc.h"
 314              		.file 6 "./../../firmware/GD32VF103_standard_peripheral/Include/gd32vf103_adc.h"
 315              		.file 7 "./../../firmware/GD32VF103_standard_peripheral/system_gd32vf103.h"
 316              		.file 8 "./../../firmware/GD32VF103_standard_peripheral/gd32vf103.h"
 317              		.file 9 "<built-in>"
GAS LISTING C:\Users\kasie\AppData\Local\Temp\ccE4WGal.s 			page 9


DEFINED SYMBOLS
                            *ABS*:0000000000000000 main.c
C:\Users\kasie\AppData\Local\Temp\ccE4WGal.s:13     .text.startup.main:0000000000000000 main
C:\Users\kasie\AppData\Local\Temp\ccE4WGal.s:17     .text.startup.main:0000000000000000 .L0 
C:\Users\kasie\AppData\Local\Temp\ccE4WGal.s:18     .text.startup.main:0000000000000000 .L0 
C:\Users\kasie\AppData\Local\Temp\ccE4WGal.s:20     .text.startup.main:0000000000000000 .L0 
C:\Users\kasie\AppData\Local\Temp\ccE4WGal.s:21     .text.startup.main:0000000000000000 .L0 
C:\Users\kasie\AppData\Local\Temp\ccE4WGal.s:22     .text.startup.main:0000000000000000 .L0 
C:\Users\kasie\AppData\Local\Temp\ccE4WGal.s:24     .text.startup.main:0000000000000002 .L0 
C:\Users\kasie\AppData\Local\Temp\ccE4WGal.s:26     .text.startup.main:0000000000000002 .L0 
C:\Users\kasie\AppData\Local\Temp\ccE4WGal.s:30     .text.startup.main:000000000000000a .L0 
C:\Users\kasie\AppData\Local\Temp\ccE4WGal.s:43     .text.startup.main:000000000000002c .L0 
C:\Users\kasie\AppData\Local\Temp\ccE4WGal.s:44     .text.startup.main:000000000000002c .L0 
C:\Users\kasie\AppData\Local\Temp\ccE4WGal.s:45     .text.startup.main:000000000000002c .L0 
C:\Users\kasie\AppData\Local\Temp\ccE4WGal.s:46     .text.startup.main:000000000000002c .L0 
C:\Users\kasie\AppData\Local\Temp\ccE4WGal.s:47     .text.startup.main:000000000000002c .L0 
C:\Users\kasie\AppData\Local\Temp\ccE4WGal.s:48     .text.startup.main:000000000000002c .L0 
C:\Users\kasie\AppData\Local\Temp\ccE4WGal.s:49     .text.startup.main:000000000000002c .L0 
C:\Users\kasie\AppData\Local\Temp\ccE4WGal.s:50     .text.startup.main:000000000000002c .L0 
C:\Users\kasie\AppData\Local\Temp\ccE4WGal.s:51     .text.startup.main:000000000000002c .L0 
C:\Users\kasie\AppData\Local\Temp\ccE4WGal.s:52     .text.startup.main:000000000000002c .L0 
C:\Users\kasie\AppData\Local\Temp\ccE4WGal.s:53     .text.startup.main:000000000000002c .L0 
C:\Users\kasie\AppData\Local\Temp\ccE4WGal.s:54     .text.startup.main:000000000000002c .L0 
C:\Users\kasie\AppData\Local\Temp\ccE4WGal.s:55     .text.startup.main:000000000000002c .L0 
C:\Users\kasie\AppData\Local\Temp\ccE4WGal.s:57     .text.startup.main:000000000000002c .L0 
C:\Users\kasie\AppData\Local\Temp\ccE4WGal.s:120    .text.startup.main:00000000000000c0 .L0 
C:\Users\kasie\AppData\Local\Temp\ccE4WGal.s:123    .text.startup.main:00000000000000c8 .L0 
C:\Users\kasie\AppData\Local\Temp\ccE4WGal.s:126    .text.startup.main:00000000000000d0 .L0 
C:\Users\kasie\AppData\Local\Temp\ccE4WGal.s:129    .text.startup.main:00000000000000d8 .L0 
C:\Users\kasie\AppData\Local\Temp\ccE4WGal.s:132    .text.startup.main:00000000000000e0 .L0 
C:\Users\kasie\AppData\Local\Temp\ccE4WGal.s:134    .text.startup.main:00000000000000e2 .L0 
C:\Users\kasie\AppData\Local\Temp\ccE4WGal.s:136    .text.startup.main:00000000000000e6 .L0 
C:\Users\kasie\AppData\Local\Temp\ccE4WGal.s:139    .text.startup.main:00000000000000ee .L0 
C:\Users\kasie\AppData\Local\Temp\ccE4WGal.s:141    .text.startup.main:00000000000000f0 .L0 
C:\Users\kasie\AppData\Local\Temp\ccE4WGal.s:143    .text.startup.main:00000000000000f2 .L0 
C:\Users\kasie\AppData\Local\Temp\ccE4WGal.s:145    .text.startup.main:00000000000000f4 .L0 
C:\Users\kasie\AppData\Local\Temp\ccE4WGal.s:147    .text.startup.main:00000000000000f6 .L0 
C:\Users\kasie\AppData\Local\Temp\ccE4WGal.s:149    .text.startup.main:00000000000000fa .L0 
C:\Users\kasie\AppData\Local\Temp\ccE4WGal.s:151    .text.startup.main:00000000000000fc .L0 
C:\Users\kasie\AppData\Local\Temp\ccE4WGal.s:153    .text.startup.main:0000000000000100 .L0 
C:\Users\kasie\AppData\Local\Temp\ccE4WGal.s:155    .text.startup.main:0000000000000104 .L0 
C:\Users\kasie\AppData\Local\Temp\ccE4WGal.s:159    .text.startup.main:0000000000000108 .L0 
C:\Users\kasie\AppData\Local\Temp\ccE4WGal.s:160    .text.startup.main:0000000000000108 .L0 
C:\Users\kasie\AppData\Local\Temp\ccE4WGal.s:161    .text.startup.main:0000000000000108 .L0 
C:\Users\kasie\AppData\Local\Temp\ccE4WGal.s:166    .text.startup.main:0000000000000114 .L0 
C:\Users\kasie\AppData\Local\Temp\ccE4WGal.s:168    .text.startup.main:0000000000000118 .L0 
C:\Users\kasie\AppData\Local\Temp\ccE4WGal.s:169    .text.startup.main:0000000000000118 .L0 
C:\Users\kasie\AppData\Local\Temp\ccE4WGal.s:175    .text.startup.main:0000000000000124 .L0 
C:\Users\kasie\AppData\Local\Temp\ccE4WGal.s:182    .text.startup.main:0000000000000130 .L0 
C:\Users\kasie\AppData\Local\Temp\ccE4WGal.s:183    .text.startup.main:0000000000000130 .L0 
C:\Users\kasie\AppData\Local\Temp\ccE4WGal.s:186    .text.startup.main:0000000000000138 .L0 
C:\Users\kasie\AppData\Local\Temp\ccE4WGal.s:188    .text.startup.main:000000000000013a .L0 
C:\Users\kasie\AppData\Local\Temp\ccE4WGal.s:193    .text.startup.main:000000000000014a .L0 
C:\Users\kasie\AppData\Local\Temp\ccE4WGal.s:195    .text.startup.main:000000000000014e .L0 
C:\Users\kasie\AppData\Local\Temp\ccE4WGal.s:199    .text.startup.main:0000000000000152 .L0 
C:\Users\kasie\AppData\Local\Temp\ccE4WGal.s:200    .text.startup.main:0000000000000152 .L0 
C:\Users\kasie\AppData\Local\Temp\ccE4WGal.s:201    .text.startup.main:0000000000000152 .L0 
GAS LISTING C:\Users\kasie\AppData\Local\Temp\ccE4WGal.s 			page 10


C:\Users\kasie\AppData\Local\Temp\ccE4WGal.s:202    .text.startup.main:0000000000000152 .L0 
C:\Users\kasie\AppData\Local\Temp\ccE4WGal.s:203    .text.startup.main:0000000000000152 .L0 
C:\Users\kasie\AppData\Local\Temp\ccE4WGal.s:205    .text.startup.main:0000000000000156 .L0 
C:\Users\kasie\AppData\Local\Temp\ccE4WGal.s:207    .text.startup.main:0000000000000158 .L0 
C:\Users\kasie\AppData\Local\Temp\ccE4WGal.s:212    .text.startup.main:0000000000000166 .L0 
C:\Users\kasie\AppData\Local\Temp\ccE4WGal.s:213    .text.startup.main:0000000000000166 .L0 
C:\Users\kasie\AppData\Local\Temp\ccE4WGal.s:218    .text.startup.main:0000000000000170 .L0 
C:\Users\kasie\AppData\Local\Temp\ccE4WGal.s:219    .text.startup.main:0000000000000170 .L0 
C:\Users\kasie\AppData\Local\Temp\ccE4WGal.s:220    .text.startup.main:0000000000000170 .L0 
C:\Users\kasie\AppData\Local\Temp\ccE4WGal.s:226    .text.startup.main:000000000000017c .L0 
C:\Users\kasie\AppData\Local\Temp\ccE4WGal.s:230    .text.startup.main:000000000000017e .L0 
C:\Users\kasie\AppData\Local\Temp\ccE4WGal.s:233    .text.startup.main:0000000000000182 .L0 
C:\Users\kasie\AppData\Local\Temp\ccE4WGal.s:236    .text.startup.main:0000000000000184 .L0 
C:\Users\kasie\AppData\Local\Temp\ccE4WGal.s:239    .text.startup.main:000000000000018c .L0 
C:\Users\kasie\AppData\Local\Temp\ccE4WGal.s:244    .text.startup.main:0000000000000194 .L0 
C:\Users\kasie\AppData\Local\Temp\ccE4WGal.s:245    .text.startup.main:0000000000000194 .L0 
C:\Users\kasie\AppData\Local\Temp\ccE4WGal.s:248    .text.startup.main:0000000000000196 .L0 
C:\Users\kasie\AppData\Local\Temp\ccE4WGal.s:249    .text.startup.main:0000000000000196 .L0 
C:\Users\kasie\AppData\Local\Temp\ccE4WGal.s:253    .text.startup.main:0000000000000198 .L0 
C:\Users\kasie\AppData\Local\Temp\ccE4WGal.s:254    .text.startup.main:0000000000000198 .L0 
C:\Users\kasie\AppData\Local\Temp\ccE4WGal.s:258    .text.startup.main:00000000000001a0 .L0 
C:\Users\kasie\AppData\Local\Temp\ccE4WGal.s:261    .text.startup.main:00000000000001a8 .L0 
C:\Users\kasie\AppData\Local\Temp\ccE4WGal.s:264    .text.startup.main:00000000000001ac .L0 
C:\Users\kasie\AppData\Local\Temp\ccE4WGal.s:266    .text.startup.main:00000000000001ae .L0 
C:\Users\kasie\AppData\Local\Temp\ccE4WGal.s:270    .text.startup.main:00000000000001b0 .L0 
C:\Users\kasie\AppData\Local\Temp\ccE4WGal.s:273    .text.startup.main:00000000000001b4 .L0 
C:\Users\kasie\AppData\Local\Temp\ccE4WGal.s:276    .text.startup.main:00000000000001b6 .L0 
C:\Users\kasie\AppData\Local\Temp\ccE4WGal.s:279    .text.startup.main:00000000000001be .L0 
C:\Users\kasie\AppData\Local\Temp\ccE4WGal.s:282    .text.startup.main:00000000000001c2 .L0 
C:\Users\kasie\AppData\Local\Temp\ccE4WGal.s:287    .text.startup.main:00000000000001ce .L0 
C:\Users\kasie\AppData\Local\Temp\ccE4WGal.s:291    .text.startup.main:00000000000001d0 .L0 
C:\Users\kasie\AppData\Local\Temp\ccE4WGal.s:292    .text.startup.main:00000000000001d0 .L0 
C:\Users\kasie\AppData\Local\Temp\ccE4WGal.s:294    .text.startup.main:00000000000001d2 .L0 
C:\Users\kasie\AppData\Local\Temp\ccE4WGal.s:296    .text.startup.main:00000000000001d6 .L0 
C:\Users\kasie\AppData\Local\Temp\ccE4WGal.s:300    .text.startup.main:00000000000001d8 .L0 
C:\Users\kasie\AppData\Local\Temp\ccE4WGal.s:305    .text.startup.main:00000000000001e6 .L0 
C:\Users\kasie\AppData\Local\Temp\ccE4WGal.s:308    .text.startup.main:00000000000001e6 .L0 
                     .debug_frame:0000000000000000 .L0 
C:\Users\kasie\AppData\Local\Temp\ccE4WGal.s:180    .text.startup.main:0000000000000130 .L3
C:\Users\kasie\AppData\Local\Temp\ccE4WGal.s:157    .text.startup.main:0000000000000108 .L2
C:\Users\kasie\AppData\Local\Temp\ccE4WGal.s:298    .text.startup.main:00000000000001d8 .L5
C:\Users\kasie\AppData\Local\Temp\ccE4WGal.s:251    .text.startup.main:0000000000000198 .L6
C:\Users\kasie\AppData\Local\Temp\ccE4WGal.s:227    .text.startup.main:000000000000017e .L7
C:\Users\kasie\AppData\Local\Temp\ccE4WGal.s:289    .text.startup.main:00000000000001d0 .L8
C:\Users\kasie\AppData\Local\Temp\ccE4WGal.s:268    .text.startup.main:00000000000001b0 .L9
C:\Users\kasie\AppData\Local\Temp\ccE4WGal.s:802    .debug_abbrev:0000000000000000 .Ldebug_abbrev0
C:\Users\kasie\AppData\Local\Temp\ccE4WGal.s:1367   .debug_str:000000000000019c .LASF35
C:\Users\kasie\AppData\Local\Temp\ccE4WGal.s:1355   .debug_str:0000000000000165 .LASF36
C:\Users\kasie\AppData\Local\Temp\ccE4WGal.s:1381   .debug_str:0000000000000262 .LASF37
C:\Users\kasie\AppData\Local\Temp\ccE4WGal.s:1291   .debug_ranges:0000000000000000 .Ldebug_ranges0
C:\Users\kasie\AppData\Local\Temp\ccE4WGal.s:1297   .debug_line:0000000000000000 .Ldebug_line0
C:\Users\kasie\AppData\Local\Temp\ccE4WGal.s:1339   .debug_str:0000000000000110 .LASF0
C:\Users\kasie\AppData\Local\Temp\ccE4WGal.s:1375   .debug_str:0000000000000241 .LASF1
C:\Users\kasie\AppData\Local\Temp\ccE4WGal.s:1299   .debug_str:0000000000000000 .LASF6
C:\Users\kasie\AppData\Local\Temp\ccE4WGal.s:1317   .debug_str:0000000000000087 .LASF2
C:\Users\kasie\AppData\Local\Temp\ccE4WGal.s:1363   .debug_str:000000000000018a .LASF3
C:\Users\kasie\AppData\Local\Temp\ccE4WGal.s:1309   .debug_str:0000000000000046 .LASF4
GAS LISTING C:\Users\kasie\AppData\Local\Temp\ccE4WGal.s 			page 11


C:\Users\kasie\AppData\Local\Temp\ccE4WGal.s:1305   .debug_str:0000000000000036 .LASF5
C:\Users\kasie\AppData\Local\Temp\ccE4WGal.s:1331   .debug_str:00000000000000ec .LASF7
C:\Users\kasie\AppData\Local\Temp\ccE4WGal.s:1321   .debug_str:00000000000000a6 .LASF8
C:\Users\kasie\AppData\Local\Temp\ccE4WGal.s:1353   .debug_str:0000000000000157 .LASF9
C:\Users\kasie\AppData\Local\Temp\ccE4WGal.s:1315   .debug_str:0000000000000070 .LASF10
C:\Users\kasie\AppData\Local\Temp\ccE4WGal.s:1345   .debug_str:000000000000012a .LASF11
C:\Users\kasie\AppData\Local\Temp\ccE4WGal.s:1369   .debug_str:0000000000000224 .LASF12
C:\Users\kasie\AppData\Local\Temp\ccE4WGal.s:1357   .debug_str:000000000000016c .LASF38
C:\Users\kasie\AppData\Local\Temp\ccE4WGal.s:1341   .debug_str:000000000000011d .LASF13
C:\Users\kasie\AppData\Local\Temp\ccE4WGal.s:1373   .debug_str:0000000000000235 .LASF14
C:\Users\kasie\AppData\Local\Temp\ccE4WGal.s:1335   .debug_str:00000000000000fe .LASF39
C:\Users\kasie\AppData\Local\Temp\ccE4WGal.s:14     .text.startup.main:0000000000000000 .LFB2
C:\Users\kasie\AppData\Local\Temp\ccE4WGal.s:306    .text.startup.main:00000000000001e6 .LFE2
C:\Users\kasie\AppData\Local\Temp\ccE4WGal.s:1122   .debug_loc:0000000000000000 .LLST0
C:\Users\kasie\AppData\Local\Temp\ccE4WGal.s:1377   .debug_str:000000000000024d .LASF15
C:\Users\kasie\AppData\Local\Temp\ccE4WGal.s:1135   .debug_loc:0000000000000021 .LLST1
C:\Users\kasie\AppData\Local\Temp\ccE4WGal.s:1311   .debug_str:0000000000000059 .LASF16
C:\Users\kasie\AppData\Local\Temp\ccE4WGal.s:1151   .debug_loc:000000000000004b .LLST2
C:\Users\kasie\AppData\Local\Temp\ccE4WGal.s:1301   .debug_str:000000000000000a .LASF17
C:\Users\kasie\AppData\Local\Temp\ccE4WGal.s:1170   .debug_loc:0000000000000072 .LLST3
C:\Users\kasie\AppData\Local\Temp\ccE4WGal.s:1307   .debug_str:000000000000003f .LASF18
C:\Users\kasie\AppData\Local\Temp\ccE4WGal.s:1182   .debug_loc:0000000000000091 .LLST4
C:\Users\kasie\AppData\Local\Temp\ccE4WGal.s:1194   .debug_loc:00000000000000b0 .LLST5
C:\Users\kasie\AppData\Local\Temp\ccE4WGal.s:1329   .debug_str:00000000000000d9 .LASF19
C:\Users\kasie\AppData\Local\Temp\ccE4WGal.s:1221   .debug_loc:00000000000000f3 .LLST6
C:\Users\kasie\AppData\Local\Temp\ccE4WGal.s:1323   .debug_str:00000000000000b8 .LASF20
C:\Users\kasie\AppData\Local\Temp\ccE4WGal.s:224    .text.startup.main:000000000000017c .LBB2
C:\Users\kasie\AppData\Local\Temp\ccE4WGal.s:242    .text.startup.main:0000000000000194 .LBE2
C:\Users\kasie\AppData\Local\Temp\ccE4WGal.s:1313   .debug_str:0000000000000068 .LASF21
C:\Users\kasie\AppData\Local\Temp\ccE4WGal.s:1236   .debug_loc:000000000000011c .LLST7
C:\Users\kasie\AppData\Local\Temp\ccE4WGal.s:237    .text.startup.main:000000000000018c .LVL21
C:\Users\kasie\AppData\Local\Temp\ccE4WGal.s:262    .text.startup.main:00000000000001ac .LBB3
C:\Users\kasie\AppData\Local\Temp\ccE4WGal.s:280    .text.startup.main:00000000000001c2 .LBE3
C:\Users\kasie\AppData\Local\Temp\ccE4WGal.s:1257   .debug_loc:0000000000000152 .LLST8
C:\Users\kasie\AppData\Local\Temp\ccE4WGal.s:277    .text.startup.main:00000000000001be .LVL26
C:\Users\kasie\AppData\Local\Temp\ccE4WGal.s:58     .text.startup.main:0000000000000034 .LVL1
C:\Users\kasie\AppData\Local\Temp\ccE4WGal.s:121    .text.startup.main:00000000000000c8 .LVL2
C:\Users\kasie\AppData\Local\Temp\ccE4WGal.s:124    .text.startup.main:00000000000000d0 .LVL3
C:\Users\kasie\AppData\Local\Temp\ccE4WGal.s:127    .text.startup.main:00000000000000d8 .LVL4
C:\Users\kasie\AppData\Local\Temp\ccE4WGal.s:130    .text.startup.main:00000000000000e0 .LVL5
C:\Users\kasie\AppData\Local\Temp\ccE4WGal.s:137    .text.startup.main:00000000000000ee .LVL6
C:\Users\kasie\AppData\Local\Temp\ccE4WGal.s:164    .text.startup.main:0000000000000114 .LVL8
C:\Users\kasie\AppData\Local\Temp\ccE4WGal.s:171    .text.startup.main:0000000000000122 .LVL9
C:\Users\kasie\AppData\Local\Temp\ccE4WGal.s:179    .text.startup.main:0000000000000130 .LVL12
C:\Users\kasie\AppData\Local\Temp\ccE4WGal.s:184    .text.startup.main:0000000000000138 .LVL13
C:\Users\kasie\AppData\Local\Temp\ccE4WGal.s:189    .text.startup.main:0000000000000142 .LVL14
C:\Users\kasie\AppData\Local\Temp\ccE4WGal.s:191    .text.startup.main:000000000000014a .LVL15
C:\Users\kasie\AppData\Local\Temp\ccE4WGal.s:210    .text.startup.main:0000000000000166 .LVL17
C:\Users\kasie\AppData\Local\Temp\ccE4WGal.s:285    .text.startup.main:00000000000001ce .LVL27
C:\Users\kasie\AppData\Local\Temp\ccE4WGal.s:303    .text.startup.main:00000000000001e4 .LVL30
C:\Users\kasie\AppData\Local\Temp\ccE4WGal.s:1351   .debug_str:0000000000000150 .LASF22
C:\Users\kasie\AppData\Local\Temp\ccE4WGal.s:1327   .debug_str:00000000000000d2 .LASF40
C:\Users\kasie\AppData\Local\Temp\ccE4WGal.s:1319   .debug_str:0000000000000095 .LASF41
C:\Users\kasie\AppData\Local\Temp\ccE4WGal.s:1343   .debug_str:0000000000000123 .LASF23
C:\Users\kasie\AppData\Local\Temp\ccE4WGal.s:1347   .debug_str:0000000000000132 .LASF24
C:\Users\kasie\AppData\Local\Temp\ccE4WGal.s:1371   .debug_str:000000000000022d .LASF25
C:\Users\kasie\AppData\Local\Temp\ccE4WGal.s:1365   .debug_str:0000000000000194 .LASF26
GAS LISTING C:\Users\kasie\AppData\Local\Temp\ccE4WGal.s 			page 12


C:\Users\kasie\AppData\Local\Temp\ccE4WGal.s:1325   .debug_str:00000000000000c2 .LASF27
C:\Users\kasie\AppData\Local\Temp\ccE4WGal.s:1337   .debug_str:0000000000000103 .LASF28
C:\Users\kasie\AppData\Local\Temp\ccE4WGal.s:1349   .debug_str:000000000000013a .LASF29
C:\Users\kasie\AppData\Local\Temp\ccE4WGal.s:1379   .debug_str:0000000000000253 .LASF30
C:\Users\kasie\AppData\Local\Temp\ccE4WGal.s:1359   .debug_str:000000000000017c .LASF31
C:\Users\kasie\AppData\Local\Temp\ccE4WGal.s:1333   .debug_str:00000000000000f7 .LASF32
C:\Users\kasie\AppData\Local\Temp\ccE4WGal.s:1361   .debug_str:0000000000000183 .LASF33
C:\Users\kasie\AppData\Local\Temp\ccE4WGal.s:1303   .debug_str:000000000000001a .LASF34
C:\Users\kasie\AppData\Local\Temp\ccE4WGal.s:23     .text.startup.main:0000000000000002 .LCFI0
C:\Users\kasie\AppData\Local\Temp\ccE4WGal.s:19     .text.startup.main:0000000000000000 .LVL0
C:\Users\kasie\AppData\Local\Temp\ccE4WGal.s:156    .text.startup.main:0000000000000108 .LVL7
C:\Users\kasie\AppData\Local\Temp\ccE4WGal.s:267    .text.startup.main:00000000000001b0 .LVL24
C:\Users\kasie\AppData\Local\Temp\ccE4WGal.s:288    .text.startup.main:00000000000001d0 .LVL28
C:\Users\kasie\AppData\Local\Temp\ccE4WGal.s:197    .text.startup.main:0000000000000152 .LVL16
C:\Users\kasie\AppData\Local\Temp\ccE4WGal.s:217    .text.startup.main:0000000000000170 .LVL18
C:\Users\kasie\AppData\Local\Temp\ccE4WGal.s:297    .text.startup.main:00000000000001d8 .LVL29
C:\Users\kasie\AppData\Local\Temp\ccE4WGal.s:173    .text.startup.main:0000000000000124 .LVL10
C:\Users\kasie\AppData\Local\Temp\ccE4WGal.s:177    .text.startup.main:0000000000000128 .LVL11
C:\Users\kasie\AppData\Local\Temp\ccE4WGal.s:228    .text.startup.main:000000000000017e .LVL19
C:\Users\kasie\AppData\Local\Temp\ccE4WGal.s:234    .text.startup.main:0000000000000184 .LVL20
C:\Users\kasie\AppData\Local\Temp\ccE4WGal.s:250    .text.startup.main:0000000000000198 .LVL23
C:\Users\kasie\AppData\Local\Temp\ccE4WGal.s:274    .text.startup.main:00000000000001b6 .LVL25
C:\Users\kasie\AppData\Local\Temp\ccE4WGal.s:319    .debug_info:0000000000000000 .Ldebug_info0

UNDEFINED SYMBOLS
memset
t5omsi
colinit
l88init
keyinit
ADC3powerUpInit
adc_flag_get
adc_regular_data_read
adc_flag_clear
t5expq
colset
l88row
l88mem
adc_software_trigger_enable
