GAS LISTING C:\Users\kasie\AppData\Local\Temp\ccSAyd4j.s 			page 1


   1              		.file	"main.c"
   2              		.option nopic
   3              		.attribute arch, "rv32i2p0_m2p0_a2p0_c2p0"
   4              		.attribute unaligned_access, 0
   5              		.attribute stack_align, 16
   6              		.text
   7              	.Ltext0:
   8              		.cfi_sections	.debug_frame
   9              		.section	.text.startup.main,"ax",@progbits
  10              		.align	1
  11              		.globl	main
  13              	main:
  14              	.LFB2:
  15              		.file 1 "main.c"
   1:main.c        **** #include "gd32vf103.h"
   2:main.c        **** #include "drivers.h"
   3:main.c        **** #include "adc.h"
   4:main.c        **** #include "lcd.h"
   5:main.c        **** 
   6:main.c        **** int main(void)
   7:main.c        **** {
  16              		.loc 1 7 1
  17              		.cfi_startproc
   8:main.c        ****   int ms = 0, s = 0, key, potentiometerValue, speed = 1000;
  18              		.loc 1 8 3
  19              	.LVL0:
   9:main.c        ****   int lookUpTbl[16] = {1, 4, 7, 14, 2, 5, 8, 0, 3, 6, 9, 15, 10, 11, 12, 13};
  20              		.loc 1 9 3
  10:main.c        ****   uint32_t avr = 0;
  21              		.loc 1 10 3
  11:main.c        **** 
  12:main.c        ****   t5omsi();                // Initialize timer5 1kHz
  22              		.loc 1 12 3
   7:main.c        ****   int ms = 0, s = 0, key, potentiometerValue, speed = 1000;
  23              		.loc 1 7 1 is_stmt 0
  24 0000 7971     		addi	sp,sp,-48
  25              	.LCFI0:
  26              		.cfi_def_cfa_offset 48
  27 0002 06D6     		sw	ra,44(sp)
  28 0004 22D4     		sw	s0,40(sp)
  29 0006 26D2     		sw	s1,36(sp)
  30 0008 4AD0     		sw	s2,32(sp)
  31 000a 4ECE     		sw	s3,28(sp)
  32 000c 52CC     		sw	s4,24(sp)
  33 000e 5AC8     		sw	s6,16(sp)
  34 0010 5EC6     		sw	s7,12(sp)
  35 0012 62C4     		sw	s8,8(sp)
  36 0014 56CA     		sw	s5,20(sp)
  37              		.cfi_offset 1, -4
  38              		.cfi_offset 8, -8
  39              		.cfi_offset 9, -12
  40              		.cfi_offset 18, -16
  41              		.cfi_offset 19, -20
  42              		.cfi_offset 20, -24
  43              		.cfi_offset 22, -32
  44              		.cfi_offset 23, -36
  45              		.cfi_offset 24, -40
GAS LISTING C:\Users\kasie\AppData\Local\Temp\ccSAyd4j.s 			page 2


  46              		.cfi_offset 21, -28
  47              		.loc 1 12 3
  48 0016 97000000 		call	t5omsi
  48      E7800000 
  49              	.LVL1:
  13:main.c        ****   colinit();               // Initialize column toolbox
  50              		.loc 1 13 3 is_stmt 1
  51 001e 97000000 		call	colinit
  51      E7800000 
  52              	.LVL2:
  14:main.c        ****   l88init();               // Initialize 8*8 led toolbox
  53              		.loc 1 14 3
  54 0026 97000000 		call	l88init
  54      E7800000 
  55              	.LVL3:
  15:main.c        ****   keyinit();               // Initialize keyboard toolbox
  56              		.loc 1 15 3
  57 002e 97000000 		call	keyinit
  57      E7800000 
  58              	.LVL4:
  16:main.c        ****   Lcd_SetType(LCD_NORMAL); // or use LCD_INVERTED!
  59              		.loc 1 16 3
  60 0036 0145     		li	a0,0
  61 0038 97000000 		call	Lcd_SetType
  61      E7800000 
  62              	.LVL5:
  17:main.c        ****   Lcd_Init();
  63              		.loc 1 17 3
  64 0040 97000000 		call	Lcd_Init
  64      E7800000 
  65              	.LVL6:
  18:main.c        ****   LCD_Clear(BLACK);
  66              		.loc 1 18 3
  67 0048 0145     		li	a0,0
  68 004a 97000000 		call	LCD_Clear
  68      E7800000 
  69              	.LVL7:
  19:main.c        ****   ADC3powerUpInit(0); // Initialize ADC0, Ch3
  70              		.loc 1 19 3
  71 0052 0145     		li	a0,0
  72 0054 97000000 		call	ADC3powerUpInit
  72      E7800000 
  73              	.LVL8:
  20:main.c        ****   LCD_DrawPoint(0, 40, WHITE);
  74              		.loc 1 20 3
  75 005c C169     		li	s3,65536
  76 005e 1386F9FF 		addi	a2,s3,-1
  77 0062 93058002 		li	a1,40
  78 0066 0145     		li	a0,0
  21:main.c        **** 
  22:main.c        ****   while (1)
  23:main.c        ****   {
  24:main.c        ****     LCD_WR_Queue(); // Manage LCD com queue!
  25:main.c        **** 
  26:main.c        ****     if (adc_flag_get(ADC0, ADC_FLAG_EOC) == SET) // If ADC is done
  79              		.loc 1 26 9 is_stmt 0
  80 0068 37240140 		li	s0,1073815552
GAS LISTING C:\Users\kasie\AppData\Local\Temp\ccSAyd4j.s 			page 3


  20:main.c        ****   LCD_DrawPoint(0, 40, WHITE);
  81              		.loc 1 20 3
  82 006c 97000000 		call	LCD_DrawPoint
  82      E7800000 
  83              	.LVL9:
   8:main.c        ****   int lookUpTbl[16] = {1, 4, 7, 14, 2, 5, 8, 0, 3, 6, 9, 15, 10, 11, 12, 13};
  84              		.loc 1 8 47
  85 0074 1309803E 		li	s2,1000
   8:main.c        ****   int lookUpTbl[16] = {1, 4, 7, 14, 2, 5, 8, 0, 3, 6, 9, 15, 10, 11, 12, 13};
  86              		.loc 1 8 15
  87 0078 014A     		li	s4,0
   8:main.c        ****   int lookUpTbl[16] = {1, 4, 7, 14, 2, 5, 8, 0, 3, 6, 9, 15, 10, 11, 12, 13};
  88              		.loc 1 8 7
  89 007a 8144     		li	s1,0
  90              		.loc 1 26 9
  91 007c 13040440 		addi	s0,s0,1024
  92              		.loc 1 26 8
  93 0080 054B     		li	s6,1
  27:main.c        ****     {
  28:main.c        ****       potentiometerValue = adc_regular_data_read(ADC0); // Get value of potentiometer
  29:main.c        ****       adc_flag_clear(ADC0, ADC_FLAG_EOC);               // ......clear IF
  30:main.c        ****       avr += potentiometerValue;
  31:main.c        ****     }
  32:main.c        **** 
  33:main.c        ****     if (t5expq())
  34:main.c        ****     {                   // Manage periodic tasks
  35:main.c        ****       l88row(colset()); // ...8*8LED and Keyboard
  36:main.c        ****       ms++;             // ...One second heart beat
  37:main.c        ****       if (ms == speed)
  38:main.c        ****       {
  39:main.c        ****         ms = 0;
  40:main.c        ****         avr = 0;
  41:main.c        ****         LCD_DrawPoint(s, potentiometerValue, WHITE);
  42:main.c        ****         s++;
  43:main.c        ****       }
  44:main.c        **** 
  45:main.c        ****       if ((key = keyscan()) >= 0)
  46:main.c        ****       { // ...Any key pressed?
  47:main.c        ****         switch (key)
  94              		.loc 1 47 9
  95 0082 914B     		li	s7,4
  96 0084 214C     		li	s8,8
  41:main.c        ****         s++;
  97              		.loc 1 41 9
  98 0086 FD19     		addi	s3,s3,-1
  99              	.LVL10:
 100              	.L2:
  22:main.c        ****   {
 101              		.loc 1 22 3 is_stmt 1
  24:main.c        **** 
 102              		.loc 1 24 5
 103 0088 97000000 		call	LCD_WR_Queue
 103      E7800000 
 104              	.LVL11:
  26:main.c        ****     {
 105              		.loc 1 26 5
  26:main.c        ****     {
GAS LISTING C:\Users\kasie\AppData\Local\Temp\ccSAyd4j.s 			page 4


 106              		.loc 1 26 9 is_stmt 0
 107 0090 8945     		li	a1,2
 108 0092 2285     		mv	a0,s0
 109 0094 97000000 		call	adc_flag_get
 109      E7800000 
 110              	.LVL12:
  26:main.c        ****     {
 111              		.loc 1 26 8
 112 009c 631E6501 		bne	a0,s6,.L3
  28:main.c        ****       adc_flag_clear(ADC0, ADC_FLAG_EOC);               // ......clear IF
 113              		.loc 1 28 7 is_stmt 1
  28:main.c        ****       adc_flag_clear(ADC0, ADC_FLAG_EOC);               // ......clear IF
 114              		.loc 1 28 28 is_stmt 0
 115 00a0 2285     		mv	a0,s0
 116 00a2 97000000 		call	adc_regular_data_read
 116      E7800000 
 117              	.LVL13:
 118 00aa AA8A     		mv	s5,a0
 119              	.LVL14:
  29:main.c        ****       avr += potentiometerValue;
 120              		.loc 1 29 7 is_stmt 1
 121 00ac 8945     		li	a1,2
 122 00ae 2285     		mv	a0,s0
 123              	.LVL15:
 124 00b0 97000000 		call	adc_flag_clear
 124      E7800000 
 125              	.LVL16:
  30:main.c        ****     }
 126              		.loc 1 30 7
 127              	.L3:
  33:main.c        ****     {                   // Manage periodic tasks
 128              		.loc 1 33 5
  33:main.c        ****     {                   // Manage periodic tasks
 129              		.loc 1 33 9 is_stmt 0
 130 00b8 97000000 		call	t5expq
 130      E7800000 
 131              	.LVL17:
  33:main.c        ****     {                   // Manage periodic tasks
 132              		.loc 1 33 8
 133 00c0 61D5     		beq	a0,zero,.L2
 134 00c2 8504     		addi	s1,s1,1
 135              	.LVL18:
  35:main.c        ****       ms++;             // ...One second heart beat
 136              		.loc 1 35 7 is_stmt 1
 137 00c4 97000000 		call	colset
 137      E7800000 
 138              	.LVL19:
 139 00cc 97000000 		call	l88row
 139      E7800000 
 140              	.LVL20:
  36:main.c        ****       if (ms == speed)
 141              		.loc 1 36 7
  37:main.c        ****       {
 142              		.loc 1 37 7
  37:main.c        ****       {
 143              		.loc 1 37 10 is_stmt 0
 144 00d4 631B9900 		bne	s2,s1,.L5
GAS LISTING C:\Users\kasie\AppData\Local\Temp\ccSAyd4j.s 			page 5


  39:main.c        ****         avr = 0;
 145              		.loc 1 39 9 is_stmt 1
 146              	.LVL21:
  40:main.c        ****         LCD_DrawPoint(s, potentiometerValue, WHITE);
 147              		.loc 1 40 9
  41:main.c        ****         s++;
 148              		.loc 1 41 9
 149 00d8 5285     		mv	a0,s4
 150 00da 4E86     		mv	a2,s3
 151 00dc D685     		mv	a1,s5
 152 00de 97000000 		call	LCD_DrawPoint
 152      E7800000 
 153              	.LVL22:
  42:main.c        ****       }
 154              		.loc 1 42 9
  42:main.c        ****       }
 155              		.loc 1 42 10 is_stmt 0
 156 00e6 050A     		addi	s4,s4,1
 157              	.LVL23:
  39:main.c        ****         avr = 0;
 158              		.loc 1 39 12
 159 00e8 8144     		li	s1,0
 160              	.LVL24:
 161              	.L5:
  45:main.c        ****       { // ...Any key pressed?
 162              		.loc 1 45 7 is_stmt 1
  45:main.c        ****       { // ...Any key pressed?
 163              		.loc 1 45 18 is_stmt 0
 164 00ea 97000000 		call	keyscan
 164      E7800000 
 165              	.LVL25:
  45:main.c        ****       { // ...Any key pressed?
 166              		.loc 1 45 10
 167 00f2 634B0500 		blt	a0,zero,.L6
 168              		.loc 1 47 9 is_stmt 1
 169 00f6 63077501 		beq	a0,s7,.L7
 170 00fa 630E8501 		beq	a0,s8,.L8
 171 00fe 09E5     		bne	a0,zero,.L6
  48:main.c        ****         {
  49:main.c        ****         case 8: // 3 - 1
  50:main.c        ****           speed = 1000;
  51:main.c        ****           break;
  52:main.c        ****         case 4: // 2 - 0.1
  53:main.c        ****           speed = 100;
  54:main.c        ****           break;
  55:main.c        ****         case 0: // 1 - 0.01
  56:main.c        ****           speed = 10;
 172              		.loc 1 56 17 is_stmt 0
 173 0100 2949     		li	s2,10
 174              	.LVL26:
 175 0102 19A0     		j	.L6
 176              	.LVL27:
 177              	.L7:
  53:main.c        ****           break;
 178              		.loc 1 53 17
 179 0104 13094006 		li	s2,100
 180              	.LVL28:
GAS LISTING C:\Users\kasie\AppData\Local\Temp\ccSAyd4j.s 			page 6


 181              	.L6:
  57:main.c        ****           break;
  58:main.c        ****         }
  59:main.c        ****       }
  60:main.c        **** 
  61:main.c        ****       adc_software_trigger_enable(ADC0, // Trigger another ADC conversion!
 182              		.loc 1 61 7 is_stmt 1
 183 0108 8545     		li	a1,1
 184 010a 2285     		mv	a0,s0
 185              	.LVL29:
 186 010c 97000000 		call	adc_software_trigger_enable
 186      E7800000 
 187              	.LVL30:
 188 0114 95BF     		j	.L2
 189              	.LVL31:
 190              	.L8:
  50:main.c        ****           break;
 191              		.loc 1 50 17 is_stmt 0
 192 0116 1309803E 		li	s2,1000
 193              	.LVL32:
 194 011a FDB7     		j	.L6
 195              		.cfi_endproc
 196              	.LFE2:
 198              		.text
 199              	.Letext0:
 200              		.file 2 "c:\\hukas\\code\\repositories\\toolchain-gd32v-v202-win\\compiler\\riscv64-unknown-elf\\i
 201              		.file 3 "c:\\hukas\\code\\repositories\\toolchain-gd32v-v202-win\\compiler\\riscv64-unknown-elf\\i
 202              		.file 4 "c:\\hukas\\code\\repositories\\toolchain-gd32v-v202-win\\compiler\\lib\\gcc\\riscv64-unkn
 203              		.file 5 "c:\\hukas\\code\\repositories\\toolchain-gd32v-v202-win\\compiler\\riscv64-unknown-elf\\i
 204              		.file 6 "c:\\hukas\\code\\repositories\\toolchain-gd32v-v202-win\\compiler\\riscv64-unknown-elf\\i
 205              		.file 7 "c:\\hukas\\code\\repositories\\toolchain-gd32v-v202-win\\compiler\\riscv64-unknown-elf\\i
 206              		.file 8 "./../../firmware/GD32VF103_standard_peripheral/system_gd32vf103.h"
 207              		.file 9 "c:\\hukas\\code\\repositories\\toolchain-gd32v-v202-win\\compiler\\riscv64-unknown-elf\\i
 208              		.file 10 "lcd.h"
 209              		.file 11 "drivers.h"
 210              		.file 12 "adc.h"
 211              		.file 13 "./../../firmware/GD32VF103_standard_peripheral/Include/gd32vf103_adc.h"
 212              		.file 14 "./../../firmware/GD32VF103_standard_peripheral/gd32vf103.h"
GAS LISTING C:\Users\kasie\AppData\Local\Temp\ccSAyd4j.s 			page 7

