GAS LISTING C:\Users\kasie\AppData\Local\Temp\ccUMWl97.s 			page 1


   1              		.file	"main.c"
   2              		.option nopic
   3              		.attribute arch, "rv32i2p0_m2p0_a2p0_c2p0"
   4              		.attribute unaligned_access, 0
   5              		.attribute stack_align, 16
   6              		.text
   7              	.Ltext0:
   8              		.cfi_sections	.debug_frame
   9              		.section	.text.startup.main,"ax",@progbits
  10              		.align	1
  11              		.globl	main
  13              	main:
  14              	.LFB2:
  15              		.file 1 "main.c"
   1:main.c        **** #include "gd32vf103.h"
   2:main.c        **** #include "drivers.h"
   3:main.c        **** #include "adc.h"
   4:main.c        **** #include "lcd.h"
   5:main.c        **** 
   6:main.c        **** int main(void)
   7:main.c        **** {
  16              		.loc 1 7 1
  17              		.cfi_startproc
   8:main.c        ****   int ms = 0, key, potentiometerValue, speed = 10, xPosition = 0, yPosition;
  18              		.loc 1 8 3
  19              	.LVL0:
   9:main.c        ****   int lookUpTbl[16] = {1, 4, 7, 14, 2, 5, 8, 0, 3, 6, 9, 15, 10, 11, 12, 13};
  20              		.loc 1 9 3
  10:main.c        ****   int array[160] = {0};
  21              		.loc 1 10 3
   7:main.c        ****   int ms = 0, key, potentiometerValue, speed = 10, xPosition = 0, yPosition;
  22              		.loc 1 7 1 is_stmt 0
  23 0000 130101D5 		addi	sp,sp,-688
  24              	.LCFI0:
  25              		.cfi_def_cfa_offset 688
  26              		.loc 1 10 7
  27 0004 13060028 		li	a2,640
  28 0008 8145     		li	a1,0
  29 000a 0A85     		mv	a0,sp
   7:main.c        ****   int ms = 0, key, potentiometerValue, speed = 10, xPosition = 0, yPosition;
  30              		.loc 1 7 1
  31 000c 2326112A 		sw	ra,684(sp)
  32 0010 2324812A 		sw	s0,680(sp)
  33 0014 2322912A 		sw	s1,676(sp)
  34 0018 2320212B 		sw	s2,672(sp)
  35 001c 232E3129 		sw	s3,668(sp)
  36 0020 232A5129 		sw	s5,660(sp)
  37 0024 23286129 		sw	s6,656(sp)
  38 0028 23267129 		sw	s7,652(sp)
  39 002c 232C4129 		sw	s4,664(sp)
  40 0030 23248129 		sw	s8,648(sp)
  41 0034 23229129 		sw	s9,644(sp)
  42 0038 2320A129 		sw	s10,640(sp)
  43              		.cfi_offset 1, -4
  44              		.cfi_offset 8, -8
  45              		.cfi_offset 9, -12
  46              		.cfi_offset 18, -16
GAS LISTING C:\Users\kasie\AppData\Local\Temp\ccUMWl97.s 			page 2


  47              		.cfi_offset 19, -20
  48              		.cfi_offset 21, -28
  49              		.cfi_offset 22, -32
  50              		.cfi_offset 23, -36
  51              		.cfi_offset 20, -24
  52              		.cfi_offset 24, -40
  53              		.cfi_offset 25, -44
  54              		.cfi_offset 26, -48
  55              		.loc 1 10 7
  56 003c 97000000 		call	memset
  56      E7800000 
  57              	.LVL1:
  11:main.c        **** 
  12:main.c        ****   t5omsi();                // Initialize timer5 1kHz
  58              		.loc 1 12 3 is_stmt 1
  59 0044 97000000 		call	t5omsi
  59      E7800000 
  60              	.LVL2:
  13:main.c        ****   colinit();               // Initialize column toolbox
  61              		.loc 1 13 3
  62 004c 97000000 		call	colinit
  62      E7800000 
  63              	.LVL3:
  14:main.c        ****   l88init();               // Initialize 8*8 led toolbox
  64              		.loc 1 14 3
  65 0054 97000000 		call	l88init
  65      E7800000 
  66              	.LVL4:
  15:main.c        ****   keyinit();               // Initialize keyboard toolbox
  67              		.loc 1 15 3
  68 005c 97000000 		call	keyinit
  68      E7800000 
  69              	.LVL5:
  16:main.c        ****   Lcd_SetType(LCD_NORMAL); // or use LCD_INVERTED!
  70              		.loc 1 16 3
  71 0064 0145     		li	a0,0
  72 0066 97000000 		call	Lcd_SetType
  72      E7800000 
  73              	.LVL6:
  17:main.c        ****   Lcd_Init();
  74              		.loc 1 17 3
  75 006e 97000000 		call	Lcd_Init
  75      E7800000 
  76              	.LVL7:
  18:main.c        ****   LCD_Clear(BLACK);
  77              		.loc 1 18 3
  78 0076 0145     		li	a0,0
  79 0078 97000000 		call	LCD_Clear
  79      E7800000 
  80              	.LVL8:
  19:main.c        ****   ADC3powerUpInit(0); // Initialize ADC0, Ch3
  81              		.loc 1 19 3
  82 0080 0145     		li	a0,0
  20:main.c        **** 
  21:main.c        ****   while (1)
  22:main.c        ****   {
  23:main.c        ****     LCD_WR_Queue(); // Manage LCD com queue!
GAS LISTING C:\Users\kasie\AppData\Local\Temp\ccUMWl97.s 			page 3


  24:main.c        **** 
  25:main.c        ****     if (adc_flag_get(ADC0, ADC_FLAG_EOC) == SET) // If ADC is done
  83              		.loc 1 25 9 is_stmt 0
  84 0082 B7240140 		li	s1,1073815552
  85              	.LBB2:
  86              	.LBB3:
  26:main.c        ****     {
  27:main.c        ****       potentiometerValue = adc_regular_data_read(ADC0); // Get value of potentiometer
  28:main.c        ****       adc_flag_clear(ADC0, ADC_FLAG_EOC);               // ......clear IF
  29:main.c        ****     }
  30:main.c        **** 
  31:main.c        ****     if (t5expq())
  32:main.c        ****     {                   // Manage periodic tasks
  33:main.c        ****       l88row(colset()); // ...8*8LED and Keyboard
  34:main.c        ****       ms++;             // ...One second heart beat
  35:main.c        **** 
  36:main.c        ****       yPosition = (potentiometerValue * 79) / 4096;
  37:main.c        **** 
  38:main.c        ****       if (ms >= speed)
  39:main.c        ****       {
  40:main.c        ****         array[1] = yPosition; // Insert new y value
  41:main.c        **** 
  42:main.c        ****         int currentX = 159;
  43:main.c        ****         while (currentX >= 0)
  44:main.c        ****         {
  45:main.c        ****           int previousX = currentX - 1;
  46:main.c        **** 
  47:main.c        ****           array[currentX] = array[previousX];                    // Shift pixel to the right
  48:main.c        ****           LCD_DrawPoint_big(currentX, array[currentX], WHITE);   // Draw new position
  87              		.loc 1 48 11
  88 0086 C169     		li	s3,65536
  89              	.LBE3:
  90              	.LBE2:
  19:main.c        **** 
  91              		.loc 1 19 3
  92 0088 97000000 		call	ADC3powerUpInit
  92      E7800000 
  93              	.LVL9:
   8:main.c        ****   int lookUpTbl[16] = {1, 4, 7, 14, 2, 5, 8, 0, 3, 6, 9, 15, 10, 11, 12, 13};
  94              		.loc 1 8 40
  95 0090 2949     		li	s2,10
   8:main.c        ****   int lookUpTbl[16] = {1, 4, 7, 14, 2, 5, 8, 0, 3, 6, 9, 15, 10, 11, 12, 13};
  96              		.loc 1 8 7
  97 0092 0144     		li	s0,0
  25:main.c        ****     {
  98              		.loc 1 25 9
  99 0094 93840440 		addi	s1,s1,1024
  25:main.c        ****     {
 100              		.loc 1 25 8
 101 0098 854A     		li	s5,1
  49:main.c        ****           LCD_DrawPoint_big(previousX, array[previousX], BLACK); // Clear old position
  50:main.c        **** 
  51:main.c        ****           currentX--;
  52:main.c        ****         }
  53:main.c        **** 
  54:main.c        ****         xPosition++;
  55:main.c        ****         ms = 0;
GAS LISTING C:\Users\kasie\AppData\Local\Temp\ccUMWl97.s 			page 4


  56:main.c        ****       }
  57:main.c        **** 
  58:main.c        ****       if ((key = keyscan()) >= 0)
  59:main.c        ****       { // ...Any key pressed?
  60:main.c        ****         ms = 0;
  61:main.c        ****         switch (key)
 102              		.loc 1 61 9
 103 009a 114B     		li	s6,4
 104 009c A14B     		li	s7,8
 105              	.LBB6:
 106              	.LBB4:
  48:main.c        ****           LCD_DrawPoint_big(previousX, array[previousX], BLACK); // Clear old position
 107              		.loc 1 48 11
 108 009e FD19     		addi	s3,s3,-1
 109              	.LVL10:
 110              	.L2:
 111              	.LBE4:
 112              	.LBE6:
  21:main.c        ****   {
 113              		.loc 1 21 3 is_stmt 1
  23:main.c        **** 
 114              		.loc 1 23 5
 115 00a0 97000000 		call	LCD_WR_Queue
 115      E7800000 
 116              	.LVL11:
  25:main.c        ****     {
 117              		.loc 1 25 5
  25:main.c        ****     {
 118              		.loc 1 25 9 is_stmt 0
 119 00a8 8945     		li	a1,2
 120 00aa 2685     		mv	a0,s1
 121 00ac 97000000 		call	adc_flag_get
 121      E7800000 
 122              	.LVL12:
  25:main.c        ****     {
 123              		.loc 1 25 8
 124 00b4 631E5501 		bne	a0,s5,.L3
  27:main.c        ****       adc_flag_clear(ADC0, ADC_FLAG_EOC);               // ......clear IF
 125              		.loc 1 27 7 is_stmt 1
  27:main.c        ****       adc_flag_clear(ADC0, ADC_FLAG_EOC);               // ......clear IF
 126              		.loc 1 27 28 is_stmt 0
 127 00b8 2685     		mv	a0,s1
 128 00ba 97000000 		call	adc_regular_data_read
 128      E7800000 
 129              	.LVL13:
 130 00c2 2A8A     		mv	s4,a0
 131              	.LVL14:
  28:main.c        ****     }
 132              		.loc 1 28 7 is_stmt 1
 133 00c4 8945     		li	a1,2
 134 00c6 2685     		mv	a0,s1
 135              	.LVL15:
 136 00c8 97000000 		call	adc_flag_clear
 136      E7800000 
 137              	.LVL16:
 138              	.L3:
  31:main.c        ****     {                   // Manage periodic tasks
GAS LISTING C:\Users\kasie\AppData\Local\Temp\ccUMWl97.s 			page 5


 139              		.loc 1 31 5
  31:main.c        ****     {                   // Manage periodic tasks
 140              		.loc 1 31 9 is_stmt 0
 141 00d0 97000000 		call	t5expq
 141      E7800000 
 142              	.LVL17:
  31:main.c        ****     {                   // Manage periodic tasks
 143              		.loc 1 31 8
 144 00d8 61D5     		beq	a0,zero,.L2
 145 00da 0504     		addi	s0,s0,1
 146              	.LVL18:
  33:main.c        ****       ms++;             // ...One second heart beat
 147              		.loc 1 33 7 is_stmt 1
 148 00dc 97000000 		call	colset
 148      E7800000 
 149              	.LVL19:
 150 00e4 97000000 		call	l88row
 150      E7800000 
 151              	.LVL20:
  34:main.c        **** 
 152              		.loc 1 34 7
  36:main.c        **** 
 153              		.loc 1 36 7
  38:main.c        ****       {
 154              		.loc 1 38 7
  38:main.c        ****       {
 155              		.loc 1 38 10 is_stmt 0
 156 00ec 63442405 		bgt	s2,s0,.L5
 157              	.LBB7:
  40:main.c        **** 
 158              		.loc 1 40 9 is_stmt 1
 159              	.LBE7:
  36:main.c        **** 
 160              		.loc 1 36 39 is_stmt 0
 161 00f0 9307F004 		li	a5,79
 162 00f4 B307FA02 		mul	a5,s4,a5
 163              	.LVL21:
 164 00f8 0A84     		mv	s0,sp
 165              	.LVL22:
 166              	.LBB8:
  42:main.c        ****         while (currentX >= 0)
 167              		.loc 1 42 13
 168 00fa 1305F009 		li	a0,159
  43:main.c        ****         {
 169              		.loc 1 43 15
 170 00fe 7D5D     		li	s10,-1
 171              	.LBE8:
  36:main.c        **** 
 172              		.loc 1 36 17
 173 0100 B187     		srai	a5,a5,12
 174              	.LVL23:
 175              	.LBB9:
  40:main.c        **** 
 176              		.loc 1 40 18
 177 0102 3EC2     		sw	a5,4(sp)
  42:main.c        ****         while (currentX >= 0)
 178              		.loc 1 42 9 is_stmt 1
GAS LISTING C:\Users\kasie\AppData\Local\Temp\ccUMWl97.s 			page 6


 179              	.LVL24:
  43:main.c        ****         {
 180              		.loc 1 43 9
 181              	.L6:
 182              	.LBB5:
  45:main.c        **** 
 183              		.loc 1 45 11
  47:main.c        ****           LCD_DrawPoint_big(currentX, array[currentX], WHITE);   // Draw new position
 184              		.loc 1 47 34 is_stmt 0
 185 0104 032C8427 		lw	s8,632(s0)
  48:main.c        ****           LCD_DrawPoint_big(previousX, array[previousX], BLACK); // Clear old position
 186              		.loc 1 48 11
 187 0108 4E86     		mv	a2,s3
  45:main.c        **** 
 188              		.loc 1 45 15
 189 010a 930CF5FF 		addi	s9,a0,-1
 190              	.LVL25:
  47:main.c        ****           LCD_DrawPoint_big(currentX, array[currentX], WHITE);   // Draw new position
 191              		.loc 1 47 11 is_stmt 1
  47:main.c        ****           LCD_DrawPoint_big(currentX, array[currentX], WHITE);   // Draw new position
 192              		.loc 1 47 27 is_stmt 0
 193 010e 232E8427 		sw	s8,636(s0)
  48:main.c        ****           LCD_DrawPoint_big(previousX, array[previousX], BLACK); // Clear old position
 194              		.loc 1 48 11 is_stmt 1
 195 0112 E285     		mv	a1,s8
 196 0114 97000000 		call	LCD_DrawPoint_big
 196      E7800000 
 197              	.LVL26:
  49:main.c        **** 
 198              		.loc 1 49 11
 199 011c 6685     		mv	a0,s9
 200 011e 0146     		li	a2,0
 201 0120 E285     		mv	a1,s8
 202 0122 97000000 		call	LCD_DrawPoint_big
 202      E7800000 
 203              	.LVL27:
  51:main.c        ****         }
 204              		.loc 1 51 11
 205 012a 7114     		addi	s0,s0,-4
 206 012c 6685     		mv	a0,s9
 207              	.LBE5:
  43:main.c        ****         {
 208              		.loc 1 43 15 is_stmt 0
 209 012e E39BACFD 		bne	s9,s10,.L6
  55:main.c        ****       }
 210              		.loc 1 55 12
 211 0132 0144     		li	s0,0
 212              	.LVL28:
 213              	.L5:
 214              	.LBE9:
  58:main.c        ****       { // ...Any key pressed?
 215              		.loc 1 58 7 is_stmt 1
  58:main.c        ****       { // ...Any key pressed?
 216              		.loc 1 58 18 is_stmt 0
 217 0134 97000000 		call	keyscan
 217      E7800000 
 218              	.LVL29:
GAS LISTING C:\Users\kasie\AppData\Local\Temp\ccUMWl97.s 			page 7


  58:main.c        ****       { // ...Any key pressed?
 219              		.loc 1 58 10
 220 013c 63480500 		blt	a0,zero,.L7
  60:main.c        ****         switch (key)
 221              		.loc 1 60 9 is_stmt 1
 222              	.LVL30:
 223              		.loc 1 61 9
 224 0140 630D6501 		beq	a0,s6,.L8
 225 0144 630F7501 		beq	a0,s7,.L9
  60:main.c        ****         switch (key)
 226              		.loc 1 60 12 is_stmt 0
 227 0148 0144     		li	s0,0
 228              		.loc 1 61 9
 229 014a 19CD     		beq	a0,zero,.L10
 230              	.LVL31:
 231              	.L7:
  62:main.c        ****         {
  63:main.c        ****         case 8: // 3 - 1
  64:main.c        ****           speed = 1000;
  65:main.c        ****           break;
  66:main.c        ****         case 4: // 2 - 0.1
  67:main.c        ****           speed = 100;
  68:main.c        ****           break;
  69:main.c        ****         case 0: // 1 - 0.01
  70:main.c        ****           speed = 10;
  71:main.c        ****           break;
  72:main.c        ****         default:
  73:main.c        ****           break;
  74:main.c        ****         }
  75:main.c        ****       }
  76:main.c        **** 
  77:main.c        ****       adc_software_trigger_enable(ADC0, // Trigger another ADC conversion!
 232              		.loc 1 77 7 is_stmt 1
 233 014c 8545     		li	a1,1
 234 014e 2685     		mv	a0,s1
 235              	.LVL32:
 236 0150 97000000 		call	adc_software_trigger_enable
 236      E7800000 
 237              	.LVL33:
 238 0158 A1B7     		j	.L2
 239              	.LVL34:
 240              	.L8:
  67:main.c        ****           break;
 241              		.loc 1 67 17 is_stmt 0
 242 015a 13094006 		li	s2,100
 243              	.LVL35:
 244              	.L16:
  60:main.c        ****         switch (key)
 245              		.loc 1 60 12
 246 015e 0144     		li	s0,0
 247 0160 F5B7     		j	.L7
 248              	.LVL36:
 249              	.L9:
  64:main.c        ****           break;
 250              		.loc 1 64 17
 251 0162 1309803E 		li	s2,1000
 252              	.LVL37:
GAS LISTING C:\Users\kasie\AppData\Local\Temp\ccUMWl97.s 			page 8


 253 0166 E5BF     		j	.L16
 254              	.LVL38:
 255              	.L10:
  70:main.c        ****           break;
 256              		.loc 1 70 17
 257 0168 2949     		li	s2,10
 258              	.LVL39:
 259 016a CDB7     		j	.L7
 260              		.cfi_endproc
 261              	.LFE2:
 263              		.text
 264              	.Letext0:
 265              		.file 2 "c:\\kasiem\\code\\repo\\toolchain-gd32v-v202-win\\toolchain-gd32v-v202-win\\compiler\\ris
 266              		.file 3 "c:\\kasiem\\code\\repo\\toolchain-gd32v-v202-win\\toolchain-gd32v-v202-win\\compiler\\ris
 267              		.file 4 "c:\\kasiem\\code\\repo\\toolchain-gd32v-v202-win\\toolchain-gd32v-v202-win\\compiler\\lib
 268              		.file 5 "c:\\kasiem\\code\\repo\\toolchain-gd32v-v202-win\\toolchain-gd32v-v202-win\\compiler\\ris
 269              		.file 6 "c:\\kasiem\\code\\repo\\toolchain-gd32v-v202-win\\toolchain-gd32v-v202-win\\compiler\\ris
 270              		.file 7 "c:\\kasiem\\code\\repo\\toolchain-gd32v-v202-win\\toolchain-gd32v-v202-win\\compiler\\ris
 271              		.file 8 "./../../firmware/GD32VF103_standard_peripheral/system_gd32vf103.h"
 272              		.file 9 "c:\\kasiem\\code\\repo\\toolchain-gd32v-v202-win\\toolchain-gd32v-v202-win\\compiler\\ris
 273              		.file 10 "lcd.h"
 274              		.file 11 "drivers.h"
 275              		.file 12 "adc.h"
 276              		.file 13 "./../../firmware/GD32VF103_standard_peripheral/Include/gd32vf103_adc.h"
 277              		.file 14 "./../../firmware/GD32VF103_standard_peripheral/gd32vf103.h"
 278              		.file 15 "<built-in>"
GAS LISTING C:\Users\kasie\AppData\Local\Temp\ccUMWl97.s 			page 9


DEFINED SYMBOLS
                            *ABS*:0000000000000000 main.c
C:\Users\kasie\AppData\Local\Temp\ccUMWl97.s:13     .text.startup.main:0000000000000000 main
C:\Users\kasie\AppData\Local\Temp\ccUMWl97.s:17     .text.startup.main:0000000000000000 .L0 
C:\Users\kasie\AppData\Local\Temp\ccUMWl97.s:18     .text.startup.main:0000000000000000 .L0 
C:\Users\kasie\AppData\Local\Temp\ccUMWl97.s:20     .text.startup.main:0000000000000000 .L0 
C:\Users\kasie\AppData\Local\Temp\ccUMWl97.s:21     .text.startup.main:0000000000000000 .L0 
C:\Users\kasie\AppData\Local\Temp\ccUMWl97.s:22     .text.startup.main:0000000000000000 .L0 
C:\Users\kasie\AppData\Local\Temp\ccUMWl97.s:23     .text.startup.main:0000000000000000 .L0 
C:\Users\kasie\AppData\Local\Temp\ccUMWl97.s:25     .text.startup.main:0000000000000004 .L0 
C:\Users\kasie\AppData\Local\Temp\ccUMWl97.s:27     .text.startup.main:0000000000000004 .L0 
C:\Users\kasie\AppData\Local\Temp\ccUMWl97.s:31     .text.startup.main:000000000000000c .L0 
C:\Users\kasie\AppData\Local\Temp\ccUMWl97.s:43     .text.startup.main:000000000000003c .L0 
C:\Users\kasie\AppData\Local\Temp\ccUMWl97.s:44     .text.startup.main:000000000000003c .L0 
C:\Users\kasie\AppData\Local\Temp\ccUMWl97.s:45     .text.startup.main:000000000000003c .L0 
C:\Users\kasie\AppData\Local\Temp\ccUMWl97.s:46     .text.startup.main:000000000000003c .L0 
C:\Users\kasie\AppData\Local\Temp\ccUMWl97.s:47     .text.startup.main:000000000000003c .L0 
C:\Users\kasie\AppData\Local\Temp\ccUMWl97.s:48     .text.startup.main:000000000000003c .L0 
C:\Users\kasie\AppData\Local\Temp\ccUMWl97.s:49     .text.startup.main:000000000000003c .L0 
C:\Users\kasie\AppData\Local\Temp\ccUMWl97.s:50     .text.startup.main:000000000000003c .L0 
C:\Users\kasie\AppData\Local\Temp\ccUMWl97.s:51     .text.startup.main:000000000000003c .L0 
C:\Users\kasie\AppData\Local\Temp\ccUMWl97.s:52     .text.startup.main:000000000000003c .L0 
C:\Users\kasie\AppData\Local\Temp\ccUMWl97.s:53     .text.startup.main:000000000000003c .L0 
C:\Users\kasie\AppData\Local\Temp\ccUMWl97.s:54     .text.startup.main:000000000000003c .L0 
C:\Users\kasie\AppData\Local\Temp\ccUMWl97.s:56     .text.startup.main:000000000000003c .L0 
C:\Users\kasie\AppData\Local\Temp\ccUMWl97.s:59     .text.startup.main:0000000000000044 .L0 
C:\Users\kasie\AppData\Local\Temp\ccUMWl97.s:62     .text.startup.main:000000000000004c .L0 
C:\Users\kasie\AppData\Local\Temp\ccUMWl97.s:65     .text.startup.main:0000000000000054 .L0 
C:\Users\kasie\AppData\Local\Temp\ccUMWl97.s:68     .text.startup.main:000000000000005c .L0 
C:\Users\kasie\AppData\Local\Temp\ccUMWl97.s:71     .text.startup.main:0000000000000064 .L0 
C:\Users\kasie\AppData\Local\Temp\ccUMWl97.s:75     .text.startup.main:000000000000006e .L0 
C:\Users\kasie\AppData\Local\Temp\ccUMWl97.s:78     .text.startup.main:0000000000000076 .L0 
C:\Users\kasie\AppData\Local\Temp\ccUMWl97.s:82     .text.startup.main:0000000000000080 .L0 
C:\Users\kasie\AppData\Local\Temp\ccUMWl97.s:84     .text.startup.main:0000000000000082 .L0 
C:\Users\kasie\AppData\Local\Temp\ccUMWl97.s:88     .text.startup.main:0000000000000086 .L0 
C:\Users\kasie\AppData\Local\Temp\ccUMWl97.s:92     .text.startup.main:0000000000000088 .L0 
C:\Users\kasie\AppData\Local\Temp\ccUMWl97.s:95     .text.startup.main:0000000000000090 .L0 
C:\Users\kasie\AppData\Local\Temp\ccUMWl97.s:97     .text.startup.main:0000000000000092 .L0 
C:\Users\kasie\AppData\Local\Temp\ccUMWl97.s:99     .text.startup.main:0000000000000094 .L0 
C:\Users\kasie\AppData\Local\Temp\ccUMWl97.s:101    .text.startup.main:0000000000000098 .L0 
C:\Users\kasie\AppData\Local\Temp\ccUMWl97.s:103    .text.startup.main:000000000000009a .L0 
C:\Users\kasie\AppData\Local\Temp\ccUMWl97.s:108    .text.startup.main:000000000000009e .L0 
C:\Users\kasie\AppData\Local\Temp\ccUMWl97.s:114    .text.startup.main:00000000000000a0 .L0 
C:\Users\kasie\AppData\Local\Temp\ccUMWl97.s:115    .text.startup.main:00000000000000a0 .L0 
C:\Users\kasie\AppData\Local\Temp\ccUMWl97.s:118    .text.startup.main:00000000000000a8 .L0 
C:\Users\kasie\AppData\Local\Temp\ccUMWl97.s:119    .text.startup.main:00000000000000a8 .L0 
C:\Users\kasie\AppData\Local\Temp\ccUMWl97.s:124    .text.startup.main:00000000000000b4 .L0 
C:\Users\kasie\AppData\Local\Temp\ccUMWl97.s:126    .text.startup.main:00000000000000b8 .L0 
C:\Users\kasie\AppData\Local\Temp\ccUMWl97.s:127    .text.startup.main:00000000000000b8 .L0 
C:\Users\kasie\AppData\Local\Temp\ccUMWl97.s:133    .text.startup.main:00000000000000c4 .L0 
C:\Users\kasie\AppData\Local\Temp\ccUMWl97.s:140    .text.startup.main:00000000000000d0 .L0 
C:\Users\kasie\AppData\Local\Temp\ccUMWl97.s:141    .text.startup.main:00000000000000d0 .L0 
C:\Users\kasie\AppData\Local\Temp\ccUMWl97.s:144    .text.startup.main:00000000000000d8 .L0 
C:\Users\kasie\AppData\Local\Temp\ccUMWl97.s:148    .text.startup.main:00000000000000dc .L0 
C:\Users\kasie\AppData\Local\Temp\ccUMWl97.s:153    .text.startup.main:00000000000000ec .L0 
C:\Users\kasie\AppData\Local\Temp\ccUMWl97.s:154    .text.startup.main:00000000000000ec .L0 
C:\Users\kasie\AppData\Local\Temp\ccUMWl97.s:155    .text.startup.main:00000000000000ec .L0 
GAS LISTING C:\Users\kasie\AppData\Local\Temp\ccUMWl97.s 			page 10


C:\Users\kasie\AppData\Local\Temp\ccUMWl97.s:156    .text.startup.main:00000000000000ec .L0 
C:\Users\kasie\AppData\Local\Temp\ccUMWl97.s:160    .text.startup.main:00000000000000f0 .L0 
C:\Users\kasie\AppData\Local\Temp\ccUMWl97.s:161    .text.startup.main:00000000000000f0 .L0 
C:\Users\kasie\AppData\Local\Temp\ccUMWl97.s:168    .text.startup.main:00000000000000fa .L0 
C:\Users\kasie\AppData\Local\Temp\ccUMWl97.s:170    .text.startup.main:00000000000000fe .L0 
C:\Users\kasie\AppData\Local\Temp\ccUMWl97.s:173    .text.startup.main:0000000000000100 .L0 
C:\Users\kasie\AppData\Local\Temp\ccUMWl97.s:177    .text.startup.main:0000000000000102 .L0 
C:\Users\kasie\AppData\Local\Temp\ccUMWl97.s:180    .text.startup.main:0000000000000104 .L0 
C:\Users\kasie\AppData\Local\Temp\ccUMWl97.s:183    .text.startup.main:0000000000000104 .L0 
C:\Users\kasie\AppData\Local\Temp\ccUMWl97.s:184    .text.startup.main:0000000000000104 .L0 
C:\Users\kasie\AppData\Local\Temp\ccUMWl97.s:185    .text.startup.main:0000000000000104 .L0 
C:\Users\kasie\AppData\Local\Temp\ccUMWl97.s:187    .text.startup.main:0000000000000108 .L0 
C:\Users\kasie\AppData\Local\Temp\ccUMWl97.s:189    .text.startup.main:000000000000010a .L0 
C:\Users\kasie\AppData\Local\Temp\ccUMWl97.s:192    .text.startup.main:000000000000010e .L0 
C:\Users\kasie\AppData\Local\Temp\ccUMWl97.s:193    .text.startup.main:000000000000010e .L0 
C:\Users\kasie\AppData\Local\Temp\ccUMWl97.s:195    .text.startup.main:0000000000000112 .L0 
C:\Users\kasie\AppData\Local\Temp\ccUMWl97.s:199    .text.startup.main:000000000000011c .L0 
C:\Users\kasie\AppData\Local\Temp\ccUMWl97.s:205    .text.startup.main:000000000000012a .L0 
C:\Users\kasie\AppData\Local\Temp\ccUMWl97.s:209    .text.startup.main:000000000000012e .L0 
C:\Users\kasie\AppData\Local\Temp\ccUMWl97.s:211    .text.startup.main:0000000000000132 .L0 
C:\Users\kasie\AppData\Local\Temp\ccUMWl97.s:216    .text.startup.main:0000000000000134 .L0 
C:\Users\kasie\AppData\Local\Temp\ccUMWl97.s:217    .text.startup.main:0000000000000134 .L0 
C:\Users\kasie\AppData\Local\Temp\ccUMWl97.s:220    .text.startup.main:000000000000013c .L0 
C:\Users\kasie\AppData\Local\Temp\ccUMWl97.s:223    .text.startup.main:0000000000000140 .L0 
C:\Users\kasie\AppData\Local\Temp\ccUMWl97.s:224    .text.startup.main:0000000000000140 .L0 
C:\Users\kasie\AppData\Local\Temp\ccUMWl97.s:227    .text.startup.main:0000000000000148 .L0 
C:\Users\kasie\AppData\Local\Temp\ccUMWl97.s:229    .text.startup.main:000000000000014a .L0 
C:\Users\kasie\AppData\Local\Temp\ccUMWl97.s:233    .text.startup.main:000000000000014c .L0 
C:\Users\kasie\AppData\Local\Temp\ccUMWl97.s:242    .text.startup.main:000000000000015a .L0 
C:\Users\kasie\AppData\Local\Temp\ccUMWl97.s:246    .text.startup.main:000000000000015e .L0 
C:\Users\kasie\AppData\Local\Temp\ccUMWl97.s:251    .text.startup.main:0000000000000162 .L0 
C:\Users\kasie\AppData\Local\Temp\ccUMWl97.s:257    .text.startup.main:0000000000000168 .L0 
C:\Users\kasie\AppData\Local\Temp\ccUMWl97.s:260    .text.startup.main:000000000000016c .L0 
C:\Users\kasie\AppData\Local\Temp\ccUMWl97.s:263    .text.startup.main:000000000000016c .L0 
                     .debug_frame:0000000000000000 .L0 
C:\Users\kasie\AppData\Local\Temp\ccUMWl97.s:138    .text.startup.main:00000000000000d0 .L3
C:\Users\kasie\AppData\Local\Temp\ccUMWl97.s:110    .text.startup.main:00000000000000a0 .L2
C:\Users\kasie\AppData\Local\Temp\ccUMWl97.s:213    .text.startup.main:0000000000000134 .L5
C:\Users\kasie\AppData\Local\Temp\ccUMWl97.s:181    .text.startup.main:0000000000000104 .L6
C:\Users\kasie\AppData\Local\Temp\ccUMWl97.s:231    .text.startup.main:000000000000014c .L7
C:\Users\kasie\AppData\Local\Temp\ccUMWl97.s:240    .text.startup.main:000000000000015a .L8
C:\Users\kasie\AppData\Local\Temp\ccUMWl97.s:249    .text.startup.main:0000000000000162 .L9
C:\Users\kasie\AppData\Local\Temp\ccUMWl97.s:255    .text.startup.main:0000000000000168 .L10
C:\Users\kasie\AppData\Local\Temp\ccUMWl97.s:244    .text.startup.main:000000000000015e .L16
C:\Users\kasie\AppData\Local\Temp\ccUMWl97.s:2179   .debug_abbrev:0000000000000000 .Ldebug_abbrev0
C:\Users\kasie\AppData\Local\Temp\ccUMWl97.s:3306   .debug_str:00000000000004df .LASF153
C:\Users\kasie\AppData\Local\Temp\ccUMWl97.s:3188   .debug_str:00000000000002af .LASF154
C:\Users\kasie\AppData\Local\Temp\ccUMWl97.s:3358   .debug_str:000000000000066f .LASF155
C:\Users\kasie\AppData\Local\Temp\ccUMWl97.s:3022   .debug_ranges:0000000000000000 .Ldebug_ranges0
C:\Users\kasie\AppData\Local\Temp\ccUMWl97.s:3048   .debug_line:0000000000000000 .Ldebug_line0
C:\Users\kasie\AppData\Local\Temp\ccUMWl97.s:3296   .debug_str:00000000000004b0 .LASF0
C:\Users\kasie\AppData\Local\Temp\ccUMWl97.s:3092   .debug_str:00000000000000ed .LASF1
C:\Users\kasie\AppData\Local\Temp\ccUMWl97.s:3060   .debug_str:000000000000002f .LASF6
C:\Users\kasie\AppData\Local\Temp\ccUMWl97.s:3230   .debug_str:0000000000000380 .LASF2
C:\Users\kasie\AppData\Local\Temp\ccUMWl97.s:3052   .debug_str:000000000000000a .LASF3
C:\Users\kasie\AppData\Local\Temp\ccUMWl97.s:3310   .debug_str:0000000000000570 .LASF4
C:\Users\kasie\AppData\Local\Temp\ccUMWl97.s:3064   .debug_str:0000000000000042 .LASF5
GAS LISTING C:\Users\kasie\AppData\Local\Temp\ccUMWl97.s 			page 11


C:\Users\kasie\AppData\Local\Temp\ccUMWl97.s:3142   .debug_str:00000000000001cf .LASF7
C:\Users\kasie\AppData\Local\Temp\ccUMWl97.s:3168   .debug_str:0000000000000242 .LASF8
C:\Users\kasie\AppData\Local\Temp\ccUMWl97.s:3126   .debug_str:000000000000017c .LASF9
C:\Users\kasie\AppData\Local\Temp\ccUMWl97.s:3074   .debug_str:0000000000000087 .LASF10
C:\Users\kasie\AppData\Local\Temp\ccUMWl97.s:3300   .debug_str:00000000000004c4 .LASF11
C:\Users\kasie\AppData\Local\Temp\ccUMWl97.s:3326   .debug_str:00000000000005d4 .LASF12
C:\Users\kasie\AppData\Local\Temp\ccUMWl97.s:3162   .debug_str:0000000000000222 .LASF123
C:\Users\kasie\AppData\Local\Temp\ccUMWl97.s:3226   .debug_str:0000000000000372 .LASF13
C:\Users\kasie\AppData\Local\Temp\ccUMWl97.s:3286   .debug_str:0000000000000489 .LASF14
C:\Users\kasie\AppData\Local\Temp\ccUMWl97.s:3218   .debug_str:0000000000000342 .LASF15
C:\Users\kasie\AppData\Local\Temp\ccUMWl97.s:3088   .debug_str:00000000000000df .LASF16
C:\Users\kasie\AppData\Local\Temp\ccUMWl97.s:3284   .debug_str:0000000000000481 .LASF17
C:\Users\kasie\AppData\Local\Temp\ccUMWl97.s:3338   .debug_str:000000000000060c .LASF18
C:\Users\kasie\AppData\Local\Temp\ccUMWl97.s:3186   .debug_str:00000000000002a9 .LASF19
C:\Users\kasie\AppData\Local\Temp\ccUMWl97.s:3160   .debug_str:000000000000021b .LASF20
C:\Users\kasie\AppData\Local\Temp\ccUMWl97.s:3276   .debug_str:0000000000000461 .LASF21
C:\Users\kasie\AppData\Local\Temp\ccUMWl97.s:3278   .debug_str:0000000000000469 .LASF22
C:\Users\kasie\AppData\Local\Temp\ccUMWl97.s:3252   .debug_str:00000000000003eb .LASF23
C:\Users\kasie\AppData\Local\Temp\ccUMWl97.s:3316   .debug_str:000000000000058f .LASF24
C:\Users\kasie\AppData\Local\Temp\ccUMWl97.s:3224   .debug_str:0000000000000360 .LASF25
C:\Users\kasie\AppData\Local\Temp\ccUMWl97.s:3242   .debug_str:00000000000003c2 .LASF26
C:\Users\kasie\AppData\Local\Temp\ccUMWl97.s:3150   .debug_str:00000000000001f4 .LASF31
C:\Users\kasie\AppData\Local\Temp\ccUMWl97.s:3302   .debug_str:00000000000004cc .LASF27
C:\Users\kasie\AppData\Local\Temp\ccUMWl97.s:3270   .debug_str:000000000000044c .LASF28
C:\Users\kasie\AppData\Local\Temp\ccUMWl97.s:3144   .debug_str:00000000000001da .LASF29
C:\Users\kasie\AppData\Local\Temp\ccUMWl97.s:3334   .debug_str:0000000000000601 .LASF30
C:\Users\kasie\AppData\Local\Temp\ccUMWl97.s:3158   .debug_str:0000000000000216 .LASF32
C:\Users\kasie\AppData\Local\Temp\ccUMWl97.s:3084   .debug_str:00000000000000cf .LASF33
C:\Users\kasie\AppData\Local\Temp\ccUMWl97.s:3354   .debug_str:0000000000000657 .LASF34
C:\Users\kasie\AppData\Local\Temp\ccUMWl97.s:3102   .debug_str:0000000000000115 .LASF35
C:\Users\kasie\AppData\Local\Temp\ccUMWl97.s:3370   .debug_str:00000000000006ef .LASF36
C:\Users\kasie\AppData\Local\Temp\ccUMWl97.s:3206   .debug_str:0000000000000304 .LASF37
C:\Users\kasie\AppData\Local\Temp\ccUMWl97.s:3198   .debug_str:00000000000002e5 .LASF38
C:\Users\kasie\AppData\Local\Temp\ccUMWl97.s:3282   .debug_str:0000000000000477 .LASF39
C:\Users\kasie\AppData\Local\Temp\ccUMWl97.s:3244   .debug_str:00000000000003cb .LASF40
C:\Users\kasie\AppData\Local\Temp\ccUMWl97.s:3350   .debug_str:000000000000063d .LASF41
C:\Users\kasie\AppData\Local\Temp\ccUMWl97.s:3106   .debug_str:0000000000000124 .LASF42
C:\Users\kasie\AppData\Local\Temp\ccUMWl97.s:3054   .debug_str:0000000000000014 .LASF43
C:\Users\kasie\AppData\Local\Temp\ccUMWl97.s:3264   .debug_str:000000000000041d .LASF44
C:\Users\kasie\AppData\Local\Temp\ccUMWl97.s:3308   .debug_str:0000000000000567 .LASF45
C:\Users\kasie\AppData\Local\Temp\ccUMWl97.s:3122   .debug_str:000000000000016d .LASF46
C:\Users\kasie\AppData\Local\Temp\ccUMWl97.s:3208   .debug_str:000000000000030d .LASF47
C:\Users\kasie\AppData\Local\Temp\ccUMWl97.s:3262   .debug_str:0000000000000418 .LASF48
C:\Users\kasie\AppData\Local\Temp\ccUMWl97.s:3140   .debug_str:00000000000001ca .LASF49
C:\Users\kasie\AppData\Local\Temp\ccUMWl97.s:3246   .debug_str:00000000000003d5 .LASF50
C:\Users\kasie\AppData\Local\Temp\ccUMWl97.s:3098   .debug_str:0000000000000107 .LASF51
C:\Users\kasie\AppData\Local\Temp\ccUMWl97.s:3294   .debug_str:00000000000004aa .LASF52
C:\Users\kasie\AppData\Local\Temp\ccUMWl97.s:3254   .debug_str:00000000000003f6 .LASF53
C:\Users\kasie\AppData\Local\Temp\ccUMWl97.s:3120   .debug_str:0000000000000166 .LASF54
C:\Users\kasie\AppData\Local\Temp\ccUMWl97.s:3170   .debug_str:0000000000000254 .LASF55
C:\Users\kasie\AppData\Local\Temp\ccUMWl97.s:3076   .debug_str:000000000000009e .LASF56
C:\Users\kasie\AppData\Local\Temp\ccUMWl97.s:3110   .debug_str:000000000000013a .LASF57
C:\Users\kasie\AppData\Local\Temp\ccUMWl97.s:3154   .debug_str:0000000000000206 .LASF58
C:\Users\kasie\AppData\Local\Temp\ccUMWl97.s:3196   .debug_str:00000000000002de .LASF59
C:\Users\kasie\AppData\Local\Temp\ccUMWl97.s:3280   .debug_str:0000000000000471 .LASF60
C:\Users\kasie\AppData\Local\Temp\ccUMWl97.s:3090   .debug_str:00000000000000e6 .LASF61
C:\Users\kasie\AppData\Local\Temp\ccUMWl97.s:3094   .debug_str:00000000000000f9 .LASF62
GAS LISTING C:\Users\kasie\AppData\Local\Temp\ccUMWl97.s 			page 12


C:\Users\kasie\AppData\Local\Temp\ccUMWl97.s:3344   .debug_str:0000000000000629 .LASF63
C:\Users\kasie\AppData\Local\Temp\ccUMWl97.s:3292   .debug_str:00000000000004a1 .LASF64
C:\Users\kasie\AppData\Local\Temp\ccUMWl97.s:3132   .debug_str:000000000000019d .LASF65
C:\Users\kasie\AppData\Local\Temp\ccUMWl97.s:3174   .debug_str:0000000000000270 .LASF66
C:\Users\kasie\AppData\Local\Temp\ccUMWl97.s:3192   .debug_str:00000000000002d2 .LASF67
C:\Users\kasie\AppData\Local\Temp\ccUMWl97.s:3256   .debug_str:00000000000003fe .LASF68
C:\Users\kasie\AppData\Local\Temp\ccUMWl97.s:3248   .debug_str:00000000000003dc .LASF69
C:\Users\kasie\AppData\Local\Temp\ccUMWl97.s:3272   .debug_str:0000000000000454 .LASF70
C:\Users\kasie\AppData\Local\Temp\ccUMWl97.s:3288   .debug_str:0000000000000495 .LASF71
C:\Users\kasie\AppData\Local\Temp\ccUMWl97.s:3124   .debug_str:0000000000000175 .LASF72
C:\Users\kasie\AppData\Local\Temp\ccUMWl97.s:3164   .debug_str:0000000000000232 .LASF73
C:\Users\kasie\AppData\Local\Temp\ccUMWl97.s:3148   .debug_str:00000000000001ec .LASF74
C:\Users\kasie\AppData\Local\Temp\ccUMWl97.s:3260   .debug_str:0000000000000413 .LASF75
C:\Users\kasie\AppData\Local\Temp\ccUMWl97.s:3058   .debug_str:0000000000000024 .LASF76
C:\Users\kasie\AppData\Local\Temp\ccUMWl97.s:3268   .debug_str:0000000000000433 .LASF77
C:\Users\kasie\AppData\Local\Temp\ccUMWl97.s:3368   .debug_str:00000000000006e7 .LASF78
C:\Users\kasie\AppData\Local\Temp\ccUMWl97.s:3128   .debug_str:000000000000018a .LASF79
C:\Users\kasie\AppData\Local\Temp\ccUMWl97.s:3266   .debug_str:0000000000000429 .LASF80
C:\Users\kasie\AppData\Local\Temp\ccUMWl97.s:3184   .debug_str:00000000000002a1 .LASF81
C:\Users\kasie\AppData\Local\Temp\ccUMWl97.s:3156   .debug_str:000000000000020c .LASF82
C:\Users\kasie\AppData\Local\Temp\ccUMWl97.s:3364   .debug_str:00000000000006dd .LASF83
C:\Users\kasie\AppData\Local\Temp\ccUMWl97.s:3220   .debug_str:0000000000000349 .LASF84
C:\Users\kasie\AppData\Local\Temp\ccUMWl97.s:3166   .debug_str:000000000000023a .LASF85
C:\Users\kasie\AppData\Local\Temp\ccUMWl97.s:3130   .debug_str:0000000000000195 .LASF86
C:\Users\kasie\AppData\Local\Temp\ccUMWl97.s:3118   .debug_str:0000000000000161 .LASF87
C:\Users\kasie\AppData\Local\Temp\ccUMWl97.s:3062   .debug_str:0000000000000039 .LASF88
C:\Users\kasie\AppData\Local\Temp\ccUMWl97.s:3342   .debug_str:000000000000061f .LASF89
C:\Users\kasie\AppData\Local\Temp\ccUMWl97.s:3112   .debug_str:0000000000000142 .LASF90
C:\Users\kasie\AppData\Local\Temp\ccUMWl97.s:3104   .debug_str:000000000000011f .LASF91
C:\Users\kasie\AppData\Local\Temp\ccUMWl97.s:3290   .debug_str:000000000000049c .LASF92
C:\Users\kasie\AppData\Local\Temp\ccUMWl97.s:3250   .debug_str:00000000000003e4 .LASF93
C:\Users\kasie\AppData\Local\Temp\ccUMWl97.s:3336   .debug_str:0000000000000606 .LASF94
C:\Users\kasie\AppData\Local\Temp\ccUMWl97.s:3176   .debug_str:0000000000000276 .LASF95
C:\Users\kasie\AppData\Local\Temp\ccUMWl97.s:3234   .debug_str:0000000000000397 .LASF96
C:\Users\kasie\AppData\Local\Temp\ccUMWl97.s:3056   .debug_str:000000000000001c .LASF97
C:\Users\kasie\AppData\Local\Temp\ccUMWl97.s:3274   .debug_str:000000000000045b .LASF98
C:\Users\kasie\AppData\Local\Temp\ccUMWl97.s:3194   .debug_str:00000000000002d8 .LASF99
C:\Users\kasie\AppData\Local\Temp\ccUMWl97.s:3312   .debug_str:0000000000000583 .LASF100
C:\Users\kasie\AppData\Local\Temp\ccUMWl97.s:3330   .debug_str:00000000000005e4 .LASF101
C:\Users\kasie\AppData\Local\Temp\ccUMWl97.s:3304   .debug_str:00000000000004d2 .LASF102
C:\Users\kasie\AppData\Local\Temp\ccUMWl97.s:3182   .debug_str:0000000000000294 .LASF103
C:\Users\kasie\AppData\Local\Temp\ccUMWl97.s:3352   .debug_str:0000000000000648 .LASF104
C:\Users\kasie\AppData\Local\Temp\ccUMWl97.s:3216   .debug_str:0000000000000333 .LASF105
C:\Users\kasie\AppData\Local\Temp\ccUMWl97.s:3178   .debug_str:000000000000027d .LASF106
C:\Users\kasie\AppData\Local\Temp\ccUMWl97.s:3204   .debug_str:00000000000002ff .LASF107
C:\Users\kasie\AppData\Local\Temp\ccUMWl97.s:3212   .debug_str:000000000000031f .LASF108
C:\Users\kasie\AppData\Local\Temp\ccUMWl97.s:3362   .debug_str:00000000000006cf .LASF109
C:\Users\kasie\AppData\Local\Temp\ccUMWl97.s:3082   .debug_str:00000000000000c1 .LASF110
C:\Users\kasie\AppData\Local\Temp\ccUMWl97.s:3340   .debug_str:0000000000000615 .LASF111
C:\Users\kasie\AppData\Local\Temp\ccUMWl97.s:3180   .debug_str:0000000000000288 .LASF112
C:\Users\kasie\AppData\Local\Temp\ccUMWl97.s:3318   .debug_str:0000000000000597 .LASF113
C:\Users\kasie\AppData\Local\Temp\ccUMWl97.s:3138   .debug_str:00000000000001bc .LASF114
C:\Users\kasie\AppData\Local\Temp\ccUMWl97.s:3080   .debug_str:00000000000000b2 .LASF115
C:\Users\kasie\AppData\Local\Temp\ccUMWl97.s:3134   .debug_str:00000000000001a5 .LASF116
C:\Users\kasie\AppData\Local\Temp\ccUMWl97.s:3066   .debug_str:000000000000004b .LASF117
C:\Users\kasie\AppData\Local\Temp\ccUMWl97.s:3068   .debug_str:000000000000005a .LASF118
C:\Users\kasie\AppData\Local\Temp\ccUMWl97.s:3240   .debug_str:00000000000003b9 .LASF119
GAS LISTING C:\Users\kasie\AppData\Local\Temp\ccUMWl97.s 			page 13


C:\Users\kasie\AppData\Local\Temp\ccUMWl97.s:3202   .debug_str:00000000000002f8 .LASF120
C:\Users\kasie\AppData\Local\Temp\ccUMWl97.s:3200   .debug_str:00000000000002ef .LASF121
C:\Users\kasie\AppData\Local\Temp\ccUMWl97.s:3346   .debug_str:000000000000062f .LASF122
C:\Users\kasie\AppData\Local\Temp\ccUMWl97.s:3078   .debug_str:00000000000000a7 .LASF156
C:\Users\kasie\AppData\Local\Temp\ccUMWl97.s:3146   .debug_str:00000000000001e0 .LASF124
C:\Users\kasie\AppData\Local\Temp\ccUMWl97.s:3324   .debug_str:00000000000005c1 .LASF125
C:\Users\kasie\AppData\Local\Temp\ccUMWl97.s:3210   .debug_str:0000000000000315 .LASF126
C:\Users\kasie\AppData\Local\Temp\ccUMWl97.s:3072   .debug_str:000000000000007c .LASF127
C:\Users\kasie\AppData\Local\Temp\ccUMWl97.s:3366   .debug_str:00000000000006e2 .LASF157
C:\Users\kasie\AppData\Local\Temp\ccUMWl97.s:14     .text.startup.main:0000000000000000 .LFB2
C:\Users\kasie\AppData\Local\Temp\ccUMWl97.s:261    .text.startup.main:000000000000016c .LFE2
C:\Users\kasie\AppData\Local\Temp\ccUMWl97.s:2843   .debug_loc:0000000000000000 .LLST0
C:\Users\kasie\AppData\Local\Temp\ccUMWl97.s:2856   .debug_loc:0000000000000021 .LLST1
C:\Users\kasie\AppData\Local\Temp\ccUMWl97.s:2898   .debug_loc:0000000000000088 .LLST2
C:\Users\kasie\AppData\Local\Temp\ccUMWl97.s:3322   .debug_str:00000000000005ae .LASF128
C:\Users\kasie\AppData\Local\Temp\ccUMWl97.s:2909   .debug_loc:00000000000000a6 .LLST3
C:\Users\kasie\AppData\Local\Temp\ccUMWl97.s:3348   .debug_str:0000000000000637 .LASF129
C:\Users\kasie\AppData\Local\Temp\ccUMWl97.s:2924   .debug_loc:00000000000000cf .LLST4
C:\Users\kasie\AppData\Local\Temp\ccUMWl97.s:3320   .debug_str:00000000000005a4 .LASF130
C:\Users\kasie\AppData\Local\Temp\ccUMWl97.s:2944   .debug_loc:0000000000000104 .LLST5
C:\Users\kasie\AppData\Local\Temp\ccUMWl97.s:3050   .debug_str:0000000000000000 .LASF131
C:\Users\kasie\AppData\Local\Temp\ccUMWl97.s:2952   .debug_loc:0000000000000118 .LLST6
C:\Users\kasie\AppData\Local\Temp\ccUMWl97.s:3152   .debug_str:00000000000001fc .LASF158
C:\Users\kasie\AppData\Local\Temp\ccUMWl97.s:3136   .debug_str:00000000000001b6 .LASF132
C:\Users\kasie\AppData\Local\Temp\ccUMWl97.s:3232   .debug_str:000000000000038e .LASF133
C:\Users\kasie\AppData\Local\Temp\ccUMWl97.s:2985   .debug_loc:0000000000000153 .LLST7
C:\Users\kasie\AppData\Local\Temp\ccUMWl97.s:3238   .debug_str:00000000000003af .LASF134
C:\Users\kasie\AppData\Local\Temp\ccUMWl97.s:3002   .debug_loc:000000000000017e .LLST8
C:\Users\kasie\AppData\Local\Temp\ccUMWl97.s:197    .text.startup.main:000000000000011c .LVL26
C:\Users\kasie\AppData\Local\Temp\ccUMWl97.s:203    .text.startup.main:000000000000012a .LVL27
C:\Users\kasie\AppData\Local\Temp\ccUMWl97.s:57     .text.startup.main:0000000000000044 .LVL1
C:\Users\kasie\AppData\Local\Temp\ccUMWl97.s:60     .text.startup.main:000000000000004c .LVL2
C:\Users\kasie\AppData\Local\Temp\ccUMWl97.s:63     .text.startup.main:0000000000000054 .LVL3
C:\Users\kasie\AppData\Local\Temp\ccUMWl97.s:66     .text.startup.main:000000000000005c .LVL4
C:\Users\kasie\AppData\Local\Temp\ccUMWl97.s:69     .text.startup.main:0000000000000064 .LVL5
C:\Users\kasie\AppData\Local\Temp\ccUMWl97.s:73     .text.startup.main:000000000000006e .LVL6
C:\Users\kasie\AppData\Local\Temp\ccUMWl97.s:76     .text.startup.main:0000000000000076 .LVL7
C:\Users\kasie\AppData\Local\Temp\ccUMWl97.s:80     .text.startup.main:0000000000000080 .LVL8
C:\Users\kasie\AppData\Local\Temp\ccUMWl97.s:93     .text.startup.main:0000000000000090 .LVL9
C:\Users\kasie\AppData\Local\Temp\ccUMWl97.s:116    .text.startup.main:00000000000000a8 .LVL11
C:\Users\kasie\AppData\Local\Temp\ccUMWl97.s:122    .text.startup.main:00000000000000b4 .LVL12
C:\Users\kasie\AppData\Local\Temp\ccUMWl97.s:129    .text.startup.main:00000000000000c2 .LVL13
C:\Users\kasie\AppData\Local\Temp\ccUMWl97.s:137    .text.startup.main:00000000000000d0 .LVL16
C:\Users\kasie\AppData\Local\Temp\ccUMWl97.s:142    .text.startup.main:00000000000000d8 .LVL17
C:\Users\kasie\AppData\Local\Temp\ccUMWl97.s:149    .text.startup.main:00000000000000e4 .LVL19
C:\Users\kasie\AppData\Local\Temp\ccUMWl97.s:151    .text.startup.main:00000000000000ec .LVL20
C:\Users\kasie\AppData\Local\Temp\ccUMWl97.s:218    .text.startup.main:000000000000013c .LVL29
C:\Users\kasie\AppData\Local\Temp\ccUMWl97.s:237    .text.startup.main:0000000000000158 .LVL33
C:\Users\kasie\AppData\Local\Temp\ccUMWl97.s:3236   .debug_str:000000000000039d .LASF135
C:\Users\kasie\AppData\Local\Temp\ccUMWl97.s:3328   .debug_str:00000000000005dd .LASF159
C:\Users\kasie\AppData\Local\Temp\ccUMWl97.s:3070   .debug_str:000000000000006b .LASF160
C:\Users\kasie\AppData\Local\Temp\ccUMWl97.s:3314   .debug_str:0000000000000588 .LASF136
C:\Users\kasie\AppData\Local\Temp\ccUMWl97.s:3108   .debug_str:0000000000000132 .LASF137
C:\Users\kasie\AppData\Local\Temp\ccUMWl97.s:3228   .debug_str:0000000000000378 .LASF138
C:\Users\kasie\AppData\Local\Temp\ccUMWl97.s:3096   .debug_str:00000000000000ff .LASF139
C:\Users\kasie\AppData\Local\Temp\ccUMWl97.s:3258   .debug_str:0000000000000407 .LASF140
C:\Users\kasie\AppData\Local\Temp\ccUMWl97.s:3360   .debug_str:00000000000006c6 .LASF141
GAS LISTING C:\Users\kasie\AppData\Local\Temp\ccUMWl97.s 			page 14


C:\Users\kasie\AppData\Local\Temp\ccUMWl97.s:3114   .debug_str:000000000000014a .LASF142
C:\Users\kasie\AppData\Local\Temp\ccUMWl97.s:3332   .debug_str:00000000000005f1 .LASF143
C:\Users\kasie\AppData\Local\Temp\ccUMWl97.s:3222   .debug_str:0000000000000353 .LASF144
C:\Users\kasie\AppData\Local\Temp\ccUMWl97.s:3116   .debug_str:0000000000000154 .LASF145
C:\Users\kasie\AppData\Local\Temp\ccUMWl97.s:3172   .debug_str:000000000000025a .LASF146
C:\Users\kasie\AppData\Local\Temp\ccUMWl97.s:3356   .debug_str:0000000000000660 .LASF147
C:\Users\kasie\AppData\Local\Temp\ccUMWl97.s:3214   .debug_str:000000000000032c .LASF148
C:\Users\kasie\AppData\Local\Temp\ccUMWl97.s:3086   .debug_str:00000000000000d8 .LASF149
C:\Users\kasie\AppData\Local\Temp\ccUMWl97.s:3298   .debug_str:00000000000004bd .LASF150
C:\Users\kasie\AppData\Local\Temp\ccUMWl97.s:3100   .debug_str:000000000000010d .LASF151
C:\Users\kasie\AppData\Local\Temp\ccUMWl97.s:3190   .debug_str:00000000000002b6 .LASF152
C:\Users\kasie\AppData\Local\Temp\ccUMWl97.s:24     .text.startup.main:0000000000000004 .LCFI0
C:\Users\kasie\AppData\Local\Temp\ccUMWl97.s:19     .text.startup.main:0000000000000000 .LVL0
C:\Users\kasie\AppData\Local\Temp\ccUMWl97.s:109    .text.startup.main:00000000000000a0 .LVL10
C:\Users\kasie\AppData\Local\Temp\ccUMWl97.s:146    .text.startup.main:00000000000000dc .LVL18
C:\Users\kasie\AppData\Local\Temp\ccUMWl97.s:165    .text.startup.main:00000000000000fa .LVL22
C:\Users\kasie\AppData\Local\Temp\ccUMWl97.s:212    .text.startup.main:0000000000000134 .LVL28
C:\Users\kasie\AppData\Local\Temp\ccUMWl97.s:222    .text.startup.main:0000000000000140 .LVL30
C:\Users\kasie\AppData\Local\Temp\ccUMWl97.s:230    .text.startup.main:000000000000014c .LVL31
C:\Users\kasie\AppData\Local\Temp\ccUMWl97.s:239    .text.startup.main:000000000000015a .LVL34
C:\Users\kasie\AppData\Local\Temp\ccUMWl97.s:235    .text.startup.main:0000000000000150 .LVL32
C:\Users\kasie\AppData\Local\Temp\ccUMWl97.s:131    .text.startup.main:00000000000000c4 .LVL14
C:\Users\kasie\AppData\Local\Temp\ccUMWl97.s:135    .text.startup.main:00000000000000c8 .LVL15
C:\Users\kasie\AppData\Local\Temp\ccUMWl97.s:243    .text.startup.main:000000000000015e .LVL35
C:\Users\kasie\AppData\Local\Temp\ccUMWl97.s:248    .text.startup.main:0000000000000162 .LVL36
C:\Users\kasie\AppData\Local\Temp\ccUMWl97.s:252    .text.startup.main:0000000000000166 .LVL37
C:\Users\kasie\AppData\Local\Temp\ccUMWl97.s:254    .text.startup.main:0000000000000168 .LVL38
C:\Users\kasie\AppData\Local\Temp\ccUMWl97.s:258    .text.startup.main:000000000000016a .LVL39
C:\Users\kasie\AppData\Local\Temp\ccUMWl97.s:163    .text.startup.main:00000000000000f8 .LVL21
C:\Users\kasie\AppData\Local\Temp\ccUMWl97.s:174    .text.startup.main:0000000000000102 .LVL23
C:\Users\kasie\AppData\Local\Temp\ccUMWl97.s:179    .text.startup.main:0000000000000104 .LVL24
C:\Users\kasie\AppData\Local\Temp\ccUMWl97.s:190    .text.startup.main:000000000000010e .LVL25
C:\Users\kasie\AppData\Local\Temp\ccUMWl97.s:280    .debug_info:0000000000000000 .Ldebug_info0
C:\Users\kasie\AppData\Local\Temp\ccUMWl97.s:85     .text.startup.main:0000000000000086 .LBB2
C:\Users\kasie\AppData\Local\Temp\ccUMWl97.s:90     .text.startup.main:0000000000000088 .LBE2
C:\Users\kasie\AppData\Local\Temp\ccUMWl97.s:105    .text.startup.main:000000000000009e .LBB6
C:\Users\kasie\AppData\Local\Temp\ccUMWl97.s:112    .text.startup.main:00000000000000a0 .LBE6
C:\Users\kasie\AppData\Local\Temp\ccUMWl97.s:157    .text.startup.main:00000000000000f0 .LBB7
C:\Users\kasie\AppData\Local\Temp\ccUMWl97.s:159    .text.startup.main:00000000000000f0 .LBE7
C:\Users\kasie\AppData\Local\Temp\ccUMWl97.s:166    .text.startup.main:00000000000000fa .LBB8
C:\Users\kasie\AppData\Local\Temp\ccUMWl97.s:171    .text.startup.main:0000000000000100 .LBE8
C:\Users\kasie\AppData\Local\Temp\ccUMWl97.s:175    .text.startup.main:0000000000000102 .LBB9
C:\Users\kasie\AppData\Local\Temp\ccUMWl97.s:214    .text.startup.main:0000000000000134 .LBE9
C:\Users\kasie\AppData\Local\Temp\ccUMWl97.s:86     .text.startup.main:0000000000000086 .LBB3
C:\Users\kasie\AppData\Local\Temp\ccUMWl97.s:89     .text.startup.main:0000000000000088 .LBE3
C:\Users\kasie\AppData\Local\Temp\ccUMWl97.s:106    .text.startup.main:000000000000009e .LBB4
C:\Users\kasie\AppData\Local\Temp\ccUMWl97.s:111    .text.startup.main:00000000000000a0 .LBE4
C:\Users\kasie\AppData\Local\Temp\ccUMWl97.s:182    .text.startup.main:0000000000000104 .LBB5
C:\Users\kasie\AppData\Local\Temp\ccUMWl97.s:207    .text.startup.main:000000000000012e .LBE5

UNDEFINED SYMBOLS
memset
t5omsi
colinit
l88init
keyinit
Lcd_SetType
GAS LISTING C:\Users\kasie\AppData\Local\Temp\ccUMWl97.s 			page 15


Lcd_Init
LCD_Clear
ADC3powerUpInit
LCD_WR_Queue
adc_flag_get
adc_regular_data_read
adc_flag_clear
t5expq
colset
l88row
LCD_DrawPoint_big
keyscan
adc_software_trigger_enable
