GAS LISTING C:\Users\kasie\AppData\Local\Temp\ccAiqZ0N.s 			page 1


   1              		.file	"main.c"
   2              		.option nopic
   3              		.attribute arch, "rv32i2p0_m2p0_a2p0_c2p0"
   4              		.attribute unaligned_access, 0
   5              		.attribute stack_align, 16
   6              		.text
   7              	.Ltext0:
   8              		.cfi_sections	.debug_frame
   9              		.section	.text.startup.main,"ax",@progbits
  10              		.align	1
  11              		.globl	main
  13              	main:
  14              	.LFB5:
  15              		.file 1 "main.c"
   1:main.c        **** #include "gd32vf103.h"
   2:main.c        **** #include "drivers.h"
   3:main.c        **** #include "adc.h"
   4:main.c        **** #include "lcd.h"
   5:main.c        **** #include "usart.h"
   6:main.c        **** 
   7:main.c        **** #include <stdio.h>
   8:main.c        **** 
   9:main.c        **** #define EI 1
  10:main.c        **** #define DI 0
  11:main.c        **** 
  12:main.c        **** int main(void)
  13:main.c        **** {
  16              		.loc 1 13 1
  17              		.cfi_startproc
  14:main.c        ****   int key, firstKey = -1, secondKey = -1, amountChar = 0;
  18              		.loc 1 14 3
  19              	.LVL0:
  15:main.c        ****   int lookUpTbl[16] = {1, 4, 7, 14, 2, 5, 8, 0, 3, 6, 9, 15, 10, 11, 12, 13};
  20              		.loc 1 15 3
  13:main.c        ****   int key, firstKey = -1, secondKey = -1, amountChar = 0;
  21              		.loc 1 13 1 is_stmt 0
  22 0000 5971     		addi	sp,sp,-112
  23              	.LCFI0:
  24              		.cfi_def_cfa_offset 112
  25              		.loc 1 15 7
  26 0002 B7050000 		lui	a1,%hi(.LANCHOR0)
  27 0006 13060004 		li	a2,64
  28 000a 93850500 		addi	a1,a1,%lo(.LANCHOR0)
  29 000e 0A85     		mv	a0,sp
  13:main.c        ****   int key, firstKey = -1, secondKey = -1, amountChar = 0;
  30              		.loc 1 13 1
  31 0010 86D6     		sw	ra,108(sp)
  32 0012 A2D4     		sw	s0,104(sp)
  33 0014 A6D2     		sw	s1,100(sp)
  34 0016 CAD0     		sw	s2,96(sp)
  35 0018 CECE     		sw	s3,92(sp)
  36 001a D2CC     		sw	s4,88(sp)
  37 001c D6CA     		sw	s5,84(sp)
  38 001e DAC8     		sw	s6,80(sp)
  39 0020 DEC6     		sw	s7,76(sp)
  40              		.cfi_offset 1, -4
  41              		.cfi_offset 8, -8
GAS LISTING C:\Users\kasie\AppData\Local\Temp\ccAiqZ0N.s 			page 2


  42              		.cfi_offset 9, -12
  43              		.cfi_offset 18, -16
  44              		.cfi_offset 19, -20
  45              		.cfi_offset 20, -24
  46              		.cfi_offset 21, -28
  47              		.cfi_offset 22, -32
  48              		.cfi_offset 23, -36
  49              		.loc 1 15 7
  50 0022 97000000 		call	memcpy
  50      E7800000 
  51              	.LVL1:
  16:main.c        **** 
  17:main.c        ****   t5omsi();                // Initialize timer5 1kHz
  52              		.loc 1 17 3 is_stmt 1
  53 002a 97000000 		call	t5omsi
  53      E7800000 
  54              	.LVL2:
  18:main.c        ****   colinit();               // Initialize column toolbox
  55              		.loc 1 18 3
  56 0032 97000000 		call	colinit
  56      E7800000 
  57              	.LVL3:
  19:main.c        ****   l88init();               // Initialize 8*8 led toolbox
  58              		.loc 1 19 3
  59 003a 97000000 		call	l88init
  59      E7800000 
  60              	.LVL4:
  20:main.c        ****   keyinit();               // Initialize keyboard toolbox
  61              		.loc 1 20 3
  62 0042 97000000 		call	keyinit
  62      E7800000 
  63              	.LVL5:
  21:main.c        ****   ADC3powerUpInit(1);      // Initialize ADC0, Ch3
  64              		.loc 1 21 3
  65 004a 0545     		li	a0,1
  66 004c 97000000 		call	ADC3powerUpInit
  66      E7800000 
  67              	.LVL6:
  22:main.c        ****   Lcd_SetType(LCD_NORMAL); // or use LCD_INVERTED!
  68              		.loc 1 22 3
  69 0054 0145     		li	a0,0
  70 0056 97000000 		call	Lcd_SetType
  70      E7800000 
  71              	.LVL7:
  23:main.c        ****   Lcd_Init();
  72              		.loc 1 23 3
  73 005e 97000000 		call	Lcd_Init
  73      E7800000 
  74              	.LVL8:
  24:main.c        ****   LCD_Clear(BLACK);
  75              		.loc 1 24 3
  76 0066 0145     		li	a0,0
  77 0068 97000000 		call	LCD_Clear
  77      E7800000 
  78              	.LVL9:
  25:main.c        ****   u0init(EI); // Initialize USART0 toolbox
  79              		.loc 1 25 3
GAS LISTING C:\Users\kasie\AppData\Local\Temp\ccAiqZ0N.s 			page 3


  80 0070 0545     		li	a0,1
  26:main.c        **** 
  27:main.c        ****   eclic_global_interrupt_enable(); // !!! INTERRUPT ENABLED !!!
  28:main.c        **** 
  29:main.c        ****   while (1)
  30:main.c        ****   {
  31:main.c        ****     LCD_WR_Queue(); // Manage LCD com queue!
  32:main.c        **** 
  33:main.c        ****     if (usart_flag_get(USART0, USART_FLAG_RBNE))
  81              		.loc 1 33 9 is_stmt 0
  82 0072 B7440140 		li	s1,1073823744
  34:main.c        ****     { // USART0 RX?
  35:main.c        ****       LCD_ShowChar(amountChar * 10, 10, usart_data_receive(USART0), OPAQUE, WHITE);
  83              		.loc 1 35 7
  84 0076 C169     		li	s3,65536
  25:main.c        **** 
  85              		.loc 1 25 3
  86 0078 97000000 		call	u0init
  86      E7800000 
  87              	.LVL10:
  27:main.c        **** 
  88              		.loc 1 27 3 is_stmt 1
  14:main.c        ****   int lookUpTbl[16] = {1, 4, 7, 14, 2, 5, 8, 0, 3, 6, 9, 15, 10, 11, 12, 13};
  89              		.loc 1 14 43 is_stmt 0
  90 0080 0149     		li	s2,0
  27:main.c        **** 
  91              		.loc 1 27 3
  92 0082 97000000 		call	eclic_global_interrupt_enable
  92      E7800000 
  93              	.LVL11:
  14:main.c        ****   int lookUpTbl[16] = {1, 4, 7, 14, 2, 5, 8, 0, 3, 6, 9, 15, 10, 11, 12, 13};
  94              		.loc 1 14 12
  95 008a 7D54     		li	s0,-1
  96              		.loc 1 35 31
  97 008c 294A     		li	s4,10
  33:main.c        ****     { // USART0 RX?
  98              		.loc 1 33 9
  99 008e 93840480 		addi	s1,s1,-2048
 100              		.loc 1 35 7
 101 0092 FD19     		addi	s3,s3,-1
 102              	.LBB2:
  36:main.c        ****     }
  37:main.c        **** 
  38:main.c        ****     if (t5expq())
  39:main.c        ****     {                   // Manage periodic tasks
  40:main.c        ****       l88row(colset()); // ...8*8LED and Keyboard
  41:main.c        **** 
  42:main.c        ****       if ((key = keyscan()) >= 0)
  43:main.c        ****       { // ...Any key pressed?
  44:main.c        **** 
  45:main.c        ****         int currentKey = lookUpTbl[key];
  46:main.c        **** 
  47:main.c        ****         if (firstKey == -1 && currentKey != 0 && currentKey != 1) // If firstKey doesn't have a val
 103              		.loc 1 47 12
 104 0094 FD5A     		li	s5,-1
 105              		.loc 1 47 28
 106 0096 054B     		li	s6,1
GAS LISTING C:\Users\kasie\AppData\Local\Temp\ccAiqZ0N.s 			page 4


 107              	.LVL12:
 108              	.L2:
 109              	.LBE2:
  35:main.c        ****     }
 110              		.loc 1 35 31
 111 0098 B30B4903 		mul	s7,s2,s4
 112              	.L4:
 113              	.LVL13:
  29:main.c        ****   {
 114              		.loc 1 29 3 is_stmt 1
  31:main.c        **** 
 115              		.loc 1 31 5
 116 009c 97000000 		call	LCD_WR_Queue
 116      E7800000 
 117              	.LVL14:
  33:main.c        ****     { // USART0 RX?
 118              		.loc 1 33 5
  33:main.c        ****     { // USART0 RX?
 119              		.loc 1 33 9 is_stmt 0
 120 00a4 9545     		li	a1,5
 121 00a6 2685     		mv	a0,s1
 122 00a8 97000000 		call	usart_flag_get
 122      E7800000 
 123              	.LVL15:
  33:main.c        ****     { // USART0 RX?
 124              		.loc 1 33 8
 125 00b0 05C1     		beq	a0,zero,.L3
  35:main.c        ****     }
 126              		.loc 1 35 7 is_stmt 1
  35:main.c        ****     }
 127              		.loc 1 35 41 is_stmt 0
 128 00b2 2685     		mv	a0,s1
 129 00b4 97000000 		call	usart_data_receive
 129      E7800000 
 130              	.LVL16:
  35:main.c        ****     }
 131              		.loc 1 35 7
 132 00bc 1376F50F 		andi	a2,a0,0xff
 133 00c0 4E87     		mv	a4,s3
 134 00c2 8146     		li	a3,0
 135 00c4 A945     		li	a1,10
 136 00c6 5E85     		mv	a0,s7
 137 00c8 97000000 		call	LCD_ShowChar
 137      E7800000 
 138              	.LVL17:
 139              	.L3:
  38:main.c        ****     {                   // Manage periodic tasks
 140              		.loc 1 38 5 is_stmt 1
  38:main.c        ****     {                   // Manage periodic tasks
 141              		.loc 1 38 9 is_stmt 0
 142 00d0 97000000 		call	t5expq
 142      E7800000 
 143              	.LVL18:
  38:main.c        ****     {                   // Manage periodic tasks
 144              		.loc 1 38 8
 145 00d8 71D1     		beq	a0,zero,.L4
  40:main.c        **** 
GAS LISTING C:\Users\kasie\AppData\Local\Temp\ccAiqZ0N.s 			page 5


 146              		.loc 1 40 7 is_stmt 1
 147 00da 97000000 		call	colset
 147      E7800000 
 148              	.LVL19:
 149 00e2 97000000 		call	l88row
 149      E7800000 
 150              	.LVL20:
  42:main.c        ****       { // ...Any key pressed?
 151              		.loc 1 42 7
  42:main.c        ****       { // ...Any key pressed?
 152              		.loc 1 42 18 is_stmt 0
 153 00ea 97000000 		call	keyscan
 153      E7800000 
 154              	.LVL21:
  42:main.c        ****       { // ...Any key pressed?
 155              		.loc 1 42 10
 156 00f2 E34305FA 		blt	a0,zero,.L2
 157              	.LBB4:
  45:main.c        **** 
 158              		.loc 1 45 9 is_stmt 1
  45:main.c        **** 
 159              		.loc 1 45 13 is_stmt 0
 160 00f6 0A05     		slli	a0,a0,2
 161              	.LVL22:
 162 00f8 9C00     		addi	a5,sp,64
 163 00fa 3E95     		add	a0,a5,a0
 164 00fc 032505FC 		lw	a0,-64(a0)
 165              	.LVL23:
 166              		.loc 1 47 9 is_stmt 1
 167              		.loc 1 47 12 is_stmt 0
 168 0100 63165401 		bne	s0,s5,.L6
 169              		.loc 1 47 28 discriminator 1
 170 0104 E37AABF8 		bleu	a0,s6,.L2
 171              		.loc 1 47 28
 172 0108 2A84     		mv	s0,a0
 173              	.LVL24:
 174 010a 79B7     		j	.L2
 175              	.LVL25:
 176              	.L6:
  48:main.c        ****         {
  49:main.c        ****           firstKey = currentKey;
  50:main.c        ****         }
  51:main.c        ****         else if (firstKey != -1) // If firstKey has a value
 177              		.loc 1 51 14 is_stmt 1
 178              	.LBB3:
  52:main.c        ****         {
  53:main.c        ****           secondKey = currentKey;
 179              		.loc 1 53 11
  54:main.c        **** 
  55:main.c        ****           uint8_t hexValue = (firstKey << 4) | secondKey; // Left shift firstKey and do an OR with 
 180              		.loc 1 55 11
  56:main.c        ****           putch(hexValue);
 181              		.loc 1 56 11
  55:main.c        ****           putch(hexValue);
 182              		.loc 1 55 40 is_stmt 0
 183 010c 1204     		slli	s0,s0,4
 184              	.LVL26:
GAS LISTING C:\Users\kasie\AppData\Local\Temp\ccAiqZ0N.s 			page 6


  55:main.c        ****           putch(hexValue);
 185              		.loc 1 55 46
 186 010e 418D     		or	a0,s0,a0
 187              	.LVL27:
 188              		.loc 1 56 11
 189 0110 1375F50F 		andi	a0,a0,0xff
 190 0114 97000000 		call	putch
 190      E7800000 
 191              	.LVL28:
  57:main.c        **** 
  58:main.c        ****           firstKey = -1;  // Reset
 192              		.loc 1 58 11 is_stmt 1
  59:main.c        ****           secondKey = -1; // Reset
 193              		.loc 1 59 11
  60:main.c        ****           amountChar++;   // Increase the amount of characters
 194              		.loc 1 60 11
 195              		.loc 1 60 21 is_stmt 0
 196 011c 0509     		addi	s2,s2,1
 197              	.LVL29:
  58:main.c        ****           secondKey = -1; // Reset
 198              		.loc 1 58 20
 199 011e 7D54     		li	s0,-1
 200 0120 A5BF     		j	.L2
 201              	.LBE3:
 202              	.LBE4:
 203              		.cfi_endproc
 204              	.LFE5:
 206              		.section	.rodata
 207              		.align	2
 208              		.set	.LANCHOR0,. + 0
 209              	.LC0:
 210 0000 01000000 		.word	1
 211 0004 04000000 		.word	4
 212 0008 07000000 		.word	7
 213 000c 0E000000 		.word	14
 214 0010 02000000 		.word	2
 215 0014 05000000 		.word	5
 216 0018 08000000 		.word	8
 217 001c 00000000 		.word	0
 218 0020 03000000 		.word	3
 219 0024 06000000 		.word	6
 220 0028 09000000 		.word	9
 221 002c 0F000000 		.word	15
 222 0030 0A000000 		.word	10
 223 0034 0B000000 		.word	11
 224 0038 0C000000 		.word	12
 225 003c 0D000000 		.word	13
 226              		.text
 227              	.Letext0:
 228              		.file 2 "c:\\hukas\\code\\repositories\\toolchain-gd32v-v202-win\\compiler\\riscv64-unknown-elf\\i
 229              		.file 3 "c:\\hukas\\code\\repositories\\toolchain-gd32v-v202-win\\compiler\\riscv64-unknown-elf\\i
 230              		.file 4 "c:\\hukas\\code\\repositories\\toolchain-gd32v-v202-win\\compiler\\lib\\gcc\\riscv64-unkn
 231              		.file 5 "c:\\hukas\\code\\repositories\\toolchain-gd32v-v202-win\\compiler\\riscv64-unknown-elf\\i
 232              		.file 6 "c:\\hukas\\code\\repositories\\toolchain-gd32v-v202-win\\compiler\\riscv64-unknown-elf\\i
 233              		.file 7 "c:\\hukas\\code\\repositories\\toolchain-gd32v-v202-win\\compiler\\riscv64-unknown-elf\\i
 234              		.file 8 "./../../firmware/GD32VF103_standard_peripheral/system_gd32vf103.h"
 235              		.file 9 "c:\\hukas\\code\\repositories\\toolchain-gd32v-v202-win\\compiler\\riscv64-unknown-elf\\i
GAS LISTING C:\Users\kasie\AppData\Local\Temp\ccAiqZ0N.s 			page 7


 236              		.file 10 "lcd.h"
 237              		.file 11 "usart.h"
 238              		.file 12 "drivers.h"
 239              		.file 13 "adc.h"
 240              		.file 14 "./../../firmware/GD32VF103_standard_peripheral/Include/gd32vf103_eclic.h"
 241              		.file 15 "./../../firmware/GD32VF103_standard_peripheral/Include/gd32vf103_usart.h"
 242              		.file 16 "<built-in>"
GAS LISTING C:\Users\kasie\AppData\Local\Temp\ccAiqZ0N.s 			page 8

