GAS LISTING C:\Users\kasie\AppData\Local\Temp\ccsE7b2d.s 			page 1


   1              		.file	"main.c"
   2              		.option nopic
   3              		.attribute arch, "rv32i2p0_m2p0_a2p0_c2p0"
   4              		.attribute unaligned_access, 0
   5              		.attribute stack_align, 16
   6              		.text
   7              	.Ltext0:
   8              		.cfi_sections	.debug_frame
   9              		.section	.text.startup.main,"ax",@progbits
  10              		.align	1
  11              		.globl	main
  13              	main:
  14              	.LFB2:
  15              		.file 1 "main.c"
   1:main.c        **** #include "gd32vf103.h"
   2:main.c        **** #include "drivers.h"
   3:main.c        **** #include "lcd.h"
   4:main.c        **** 
   5:main.c        **** int main(void)
   6:main.c        **** {
  16              		.loc 1 6 1
  17              		.cfi_startproc
   7:main.c        ****   int ms = 0, x = 0, y = 32, right = 1, down = 1;
  18              		.loc 1 7 3
  19              	.LVL0:
   8:main.c        ****   char ch[] = {126, 127, 128, 129, 130, 131, 132, 133, 134, 135, 136, 137, 138, 139, 140, 141, 142,
  20              		.loc 1 8 3
   9:main.c        **** 
  10:main.c        ****   t5omsi();                // Initialize timer5 1kHz
  21              		.loc 1 10 3
   6:main.c        ****   int ms = 0, x = 0, y = 32, right = 1, down = 1;
  22              		.loc 1 6 1 is_stmt 0
  23 0000 5D71     		addi	sp,sp,-80
  24              	.LCFI0:
  25              		.cfi_def_cfa_offset 80
  26 0002 86C6     		sw	ra,76(sp)
  27 0004 A2C4     		sw	s0,72(sp)
  28 0006 A6C2     		sw	s1,68(sp)
  29 0008 4EDE     		sw	s3,60(sp)
  30 000a 52DC     		sw	s4,56(sp)
  31 000c 5AD8     		sw	s6,48(sp)
  32 000e 6ECE     		sw	s11,28(sp)
  33 0010 CAC0     		sw	s2,64(sp)
  34 0012 56DA     		sw	s5,52(sp)
  35 0014 5ED6     		sw	s7,44(sp)
  36 0016 62D4     		sw	s8,40(sp)
  37 0018 66D2     		sw	s9,36(sp)
  38 001a 6AD0     		sw	s10,32(sp)
  39              		.cfi_offset 1, -4
  40              		.cfi_offset 8, -8
  41              		.cfi_offset 9, -12
  42              		.cfi_offset 19, -20
  43              		.cfi_offset 20, -24
  44              		.cfi_offset 22, -32
  45              		.cfi_offset 27, -52
  46              		.cfi_offset 18, -16
  47              		.cfi_offset 21, -28
GAS LISTING C:\Users\kasie\AppData\Local\Temp\ccsE7b2d.s 			page 2


  48              		.cfi_offset 23, -36
  49              		.cfi_offset 24, -40
  50              		.cfi_offset 25, -44
  51              		.cfi_offset 26, -48
  52              		.loc 1 10 3
  53 001c 97000000 		call	t5omsi
  53      E7800000 
  54              	.LVL1:
  11:main.c        ****   colinit();               // Initialize column toolbox
  55              		.loc 1 11 3 is_stmt 1
  56 0024 97000000 		call	colinit
  56      E7800000 
  57              	.LVL2:
  12:main.c        ****   l88init();               // Initialize 8*8 led toolbox
  58              		.loc 1 12 3
  59 002c 97000000 		call	l88init
  59      E7800000 
  60              	.LVL3:
  13:main.c        ****   keyinit();               // Initialize keyboard toolbox
  61              		.loc 1 13 3
  62 0034 97000000 		call	keyinit
  62      E7800000 
  63              	.LVL4:
  14:main.c        ****   Lcd_SetType(LCD_NORMAL); // INVERTED);              // or use LCD_INVERTED!
  64              		.loc 1 14 3
  65 003c 0145     		li	a0,0
  66 003e 97000000 		call	Lcd_SetType
  66      E7800000 
  67              	.LVL5:
  15:main.c        ****   Lcd_Init();
  68              		.loc 1 15 3
  16:main.c        ****   LCD_Clear(WHITE);
  69              		.loc 1 16 3 is_stmt 0
  70 0046 416A     		li	s4,65536
  15:main.c        ****   Lcd_Init();
  71              		.loc 1 15 3
  72 0048 97000000 		call	Lcd_Init
  72      E7800000 
  73              	.LVL6:
  74              		.loc 1 16 3 is_stmt 1
  75 0050 1305FAFF 		addi	a0,s4,-1
  76 0054 97000000 		call	LCD_Clear
  76      E7800000 
  77              	.LVL7:
  78              	.LBB2:
  17:main.c        **** 
  18:main.c        ****   while (1)
  19:main.c        ****   {
  20:main.c        ****     LCD_WR_Queue(); // Manage LCD com queue!
  21:main.c        **** 
  22:main.c        ****     if (t5expq())
  23:main.c        ****     {                   // Manage periodic tasks
  24:main.c        ****       l88row(colset()); // ...8*8LED and Keyboard
  25:main.c        ****       ms++;
  26:main.c        **** 
  27:main.c        ****       if (ms == 1)
  28:main.c        ****       {
GAS LISTING C:\Users\kasie\AppData\Local\Temp\ccsE7b2d.s 			page 3


  29:main.c        **** 
  30:main.c        ****         // 1. Check boundaries *BEFORE* anything else.
  31:main.c        ****         if (x + 48 >= 160) // Right edge
  32:main.c        ****         {
  33:main.c        ****           right = 0;
  34:main.c        ****         }
  35:main.c        ****         if (x <= 0) // Left edge
  36:main.c        ****         {
  37:main.c        ****           right = 1;
  38:main.c        ****         }
  39:main.c        ****         if (y + 48 >= 80) // Bottom edge
  40:main.c        ****         {
  41:main.c        ****           down = 0;
  42:main.c        ****         }
  43:main.c        ****         if (y <= 0) // Top edge
  44:main.c        ****         {
  45:main.c        ****           down = 1;
  46:main.c        ****         }
  47:main.c        **** 
  48:main.c        ****         // 2. Update x and y *after* boundary checks, but *before* prev_x/y
  49:main.c        ****         if (right)
  50:main.c        ****         {
  51:main.c        ****           x++;
  52:main.c        ****         }
  53:main.c        ****         else
  54:main.c        ****         {
  55:main.c        ****           x--;
  56:main.c        ****         }
  57:main.c        **** 
  58:main.c        ****         if (down)
  59:main.c        ****         {
  60:main.c        ****           y++;
  61:main.c        ****         }
  62:main.c        ****         else
  63:main.c        ****         {
  64:main.c        ****           y--;
  65:main.c        ****         }
  66:main.c        **** 
  67:main.c        ****         // 3. Calculate prev_x and prev_y *AFTER* x and y are updated.
  68:main.c        ****         int prev_x = x - 1; // Simplified
  69:main.c        ****         int prev_y = y - 1; // Simplified
  70:main.c        ****         if (!right)
  71:main.c        ****           prev_x = x + 1;
  72:main.c        ****         if (!down)
  73:main.c        ****           prev_y = y + 1;
  74:main.c        **** 
  75:main.c        ****         // Clear the previous frame.
  76:main.c        ****         LCD_ShowChar(prev_x + 8, prev_y, ch[0], TRANSPARENT, WHITE);
  77:main.c        ****         LCD_ShowChar(prev_x + 16, prev_y, ch[1], TRANSPARENT, WHITE);
  78:main.c        ****         LCD_ShowChar(prev_x + 24, prev_y, ch[2], TRANSPARENT, WHITE);
  79:main.c        ****         LCD_ShowChar(prev_x + 32, prev_y, ch[3], TRANSPARENT, WHITE);
  80:main.c        ****         LCD_ShowChar(prev_x + 40, prev_y, ch[4], TRANSPARENT, WHITE);
  81:main.c        ****         LCD_ShowChar(prev_x, prev_y, ch[23], TRANSPARENT, WHITE);
  82:main.c        ****         LCD_ShowChar(prev_x + 40, prev_y, ch[5], TRANSPARENT, WHITE);
  83:main.c        ****         LCD_ShowChar(prev_x + 16, prev_y, ch[6], TRANSPARENT, WHITE);
  84:main.c        ****         LCD_ShowChar(prev_x + 24, prev_y, ch[7], TRANSPARENT, WHITE);
  85:main.c        ****         LCD_ShowChar(prev_x + 32, prev_y, ch[8], TRANSPARENT, WHITE);
GAS LISTING C:\Users\kasie\AppData\Local\Temp\ccsE7b2d.s 			page 4


  86:main.c        ****         LCD_ShowChar(prev_x + 8, prev_y, ch[9], TRANSPARENT, WHITE);
  87:main.c        ****         LCD_ShowChar(prev_x + 16, prev_y, ch[10], TRANSPARENT, WHITE);
  88:main.c        ****         LCD_ShowChar(prev_x + 24, prev_y, ch[11], TRANSPARENT, WHITE);
  89:main.c        ****         LCD_ShowChar(prev_x + 32, prev_y, ch[12], TRANSPARENT, WHITE);
  90:main.c        ****         LCD_ShowChar(prev_x + 8, prev_y + 16, ch[13], TRANSPARENT, WHITE);
  91:main.c        ****         LCD_ShowChar(prev_x + 16, prev_y + 16, ch[14], TRANSPARENT, WHITE);
  92:main.c        ****         LCD_ShowChar(prev_x + 24, prev_y + 16, ch[15], TRANSPARENT, WHITE);
  93:main.c        ****         LCD_ShowChar(prev_x + 32, prev_y + 16, ch[16], TRANSPARENT, WHITE);
  94:main.c        ****         LCD_ShowChar(prev_x + 40, prev_y + 16, ch[17], TRANSPARENT, WHITE);
  95:main.c        ****         LCD_ShowChar(prev_x + 8, prev_y + 32, ch[18], TRANSPARENT, WHITE);
  96:main.c        ****         LCD_ShowChar(prev_x + 16, prev_y + 32, ch[19], TRANSPARENT, WHITE);
  97:main.c        ****         LCD_ShowChar(prev_x + 24, prev_y + 32, ch[20], TRANSPARENT, WHITE);
  98:main.c        ****         LCD_ShowChar(prev_x + 32, prev_y + 32, ch[21], TRANSPARENT, WHITE);
  99:main.c        ****         LCD_ShowChar(prev_x + 40, prev_y + 32, ch[22], TRANSPARENT, WHITE);
 100:main.c        **** 
 101:main.c        ****         // Draw new position
 102:main.c        ****         LCD_ShowChar(x + 8, y, ch[0], TRANSPARENT, BLACK);
 103:main.c        ****         LCD_ShowChar(x + 16, y, ch[1], TRANSPARENT, BLACK);
 104:main.c        ****         LCD_ShowChar(x + 24, y, ch[2], TRANSPARENT, BLACK);
 105:main.c        ****         LCD_ShowChar(x + 32, y, ch[3], TRANSPARENT, BLACK);
 106:main.c        ****         LCD_ShowChar(x + 40, y, ch[4], TRANSPARENT, BLACK);
 107:main.c        ****         LCD_ShowChar(x, y, ch[23], TRANSPARENT, BLACK);
 108:main.c        ****         LCD_ShowChar(x + 40, y, ch[5], TRANSPARENT, YELLOW);
 109:main.c        ****         LCD_ShowChar(x + 16, y, ch[6], TRANSPARENT, YELLOW);
 110:main.c        ****         LCD_ShowChar(x + 24, y, ch[7], TRANSPARENT, YELLOW);
 111:main.c        ****         LCD_ShowChar(x + 32, y, ch[8], TRANSPARENT, YELLOW);
 112:main.c        ****         LCD_ShowChar(x + 8, y, ch[9], TRANSPARENT, YELLOW);
 113:main.c        ****         LCD_ShowChar(x + 16, y, ch[10], TRANSPARENT, RED);
  79              		.loc 1 113 9 is_stmt 0
  80 005c 93070A80 		addi	a5,s4,-2048
  81              	.LBE2:
   7:main.c        ****   char ch[] = {126, 127, 128, 129, 130, 131, 132, 133, 134, 135, 136, 137, 138, 139, 140, 141, 142,
  82              		.loc 1 7 41
  83 0060 854D     		li	s11,1
   7:main.c        ****   char ch[] = {126, 127, 128, 129, 130, 131, 132, 133, 134, 135, 136, 137, 138, 139, 140, 141, 142,
  84              		.loc 1 7 30
  85 0062 0548     		li	a6,1
   7:main.c        ****   char ch[] = {126, 127, 128, 129, 130, 131, 132, 133, 134, 135, 136, 137, 138, 139, 140, 141, 142,
  86              		.loc 1 7 22
  87 0064 13040002 		li	s0,32
   7:main.c        ****   char ch[] = {126, 127, 128, 129, 130, 131, 132, 133, 134, 135, 136, 137, 138, 139, 140, 141, 142,
  88              		.loc 1 7 15
  89 0068 8149     		li	s3,0
  90              	.LBB3:
  76:main.c        ****         LCD_ShowChar(prev_x + 16, prev_y, ch[1], TRANSPARENT, WHITE);
  91              		.loc 1 76 9
  92 006a 9304FAFF 		addi	s1,s4,-1
 108:main.c        ****         LCD_ShowChar(x + 16, y, ch[6], TRANSPARENT, YELLOW);
  93              		.loc 1 108 9
  94 006e 130B0AFE 		addi	s6,s4,-32
  95              		.loc 1 113 9
  96 0072 3EC4     		sw	a5,8(sp)
  97              	.LVL8:
  98              	.L2:
  99 0074 42C6     		sw	a6,12(sp)
 100              	.LVL9:
 101              	.LBE3:
GAS LISTING C:\Users\kasie\AppData\Local\Temp\ccsE7b2d.s 			page 5


  18:main.c        ****   {
 102              		.loc 1 18 3 is_stmt 1
  20:main.c        **** 
 103              		.loc 1 20 5
 104 0076 97000000 		call	LCD_WR_Queue
 104      E7800000 
 105              	.LVL10:
  22:main.c        ****     {                   // Manage periodic tasks
 106              		.loc 1 22 5
  22:main.c        ****     {                   // Manage periodic tasks
 107              		.loc 1 22 9 is_stmt 0
 108 007e 97000000 		call	t5expq
 108      E7800000 
 109              	.LVL11:
  22:main.c        ****     {                   // Manage periodic tasks
 110              		.loc 1 22 8
 111 0086 3248     		lw	a6,12(sp)
 112 0088 75D5     		beq	a0,zero,.L2
  24:main.c        ****       ms++;
 113              		.loc 1 24 7 is_stmt 1
 114 008a 97000000 		call	colset
 114      E7800000 
 115              	.LVL12:
 116 0092 97000000 		call	l88row
 116      E7800000 
 117              	.LVL13:
  25:main.c        **** 
 118              		.loc 1 25 7
  27:main.c        ****       {
 119              		.loc 1 27 7
 120              	.LBB4:
  31:main.c        ****         {
 121              		.loc 1 31 9
  31:main.c        ****         {
 122              		.loc 1 31 12 is_stmt 0
 123 009a 9307F006 		li	a5,111
 124 009e 63CD3745 		bgt	s3,a5,.L3
  35:main.c        ****         {
 125              		.loc 1 35 9 is_stmt 1
  35:main.c        ****         {
 126              		.loc 1 35 12 is_stmt 0
 127 00a2 3248     		lw	a6,12(sp)
  39:main.c        ****         {
 128              		.loc 1 39 12
 129 00a4 FD47     		li	a5,31
  35:main.c        ****         {
 130              		.loc 1 35 12
 131 00a6 63533045 		ble	s3,zero,.L4
  39:main.c        ****         {
 132              		.loc 1 39 9 is_stmt 1
  39:main.c        ****         {
 133              		.loc 1 39 12 is_stmt 0
 134 00aa 63C78742 		bgt	s0,a5,.L19
  43:main.c        ****         {
 135              		.loc 1 43 9 is_stmt 1
  43:main.c        ****         {
 136              		.loc 1 43 12 is_stmt 0
GAS LISTING C:\Users\kasie\AppData\Local\Temp\ccsE7b2d.s 			page 6


 137 00ae 63438000 		bgt	s0,zero,.L5
 138              	.LVL14:
 139              	.L18:
  45:main.c        ****         }
 140              		.loc 1 45 16
 141 00b2 854D     		li	s11,1
 142              	.LVL15:
 143              	.L5:
  49:main.c        ****         {
 144              		.loc 1 49 9 is_stmt 1
  49:main.c        ****         {
 145              		.loc 1 49 12 is_stmt 0
 146 00b4 63070842 		beq	a6,zero,.L6
 147              	.LVL16:
 148              	.L15:
  51:main.c        ****         }
 149              		.loc 1 51 11 is_stmt 1
  51:main.c        ****         }
 150              		.loc 1 51 12 is_stmt 0
 151 00b8 8509     		addi	s3,s3,1
 152              	.LVL17:
 153 00ba 0548     		li	a6,1
 154              	.L7:
  58:main.c        ****         {
 155              		.loc 1 58 9 is_stmt 1
  58:main.c        ****         {
 156              		.loc 1 58 12 is_stmt 0
 157 00bc 63860D42 		beq	s11,zero,.L8
  60:main.c        ****         }
 158              		.loc 1 60 11 is_stmt 1
  60:main.c        ****         }
 159              		.loc 1 60 12 is_stmt 0
 160 00c0 0504     		addi	s0,s0,1
 161              	.LVL18:
 162              	.L9:
  68:main.c        ****         int prev_y = y - 1; // Simplified
 163              		.loc 1 68 9 is_stmt 1
  69:main.c        ****         if (!right)
 164              		.loc 1 69 9
  70:main.c        ****           prev_x = x + 1;
 165              		.loc 1 70 9
  71:main.c        ****         if (!down)
 166              		.loc 1 71 18 is_stmt 0
 167 00c2 938A1900 		addi	s5,s3,1
  70:main.c        ****           prev_x = x + 1;
 168              		.loc 1 70 12
 169 00c6 63040800 		beq	a6,zero,.L11
  68:main.c        ****         int prev_y = y - 1; // Simplified
 170              		.loc 1 68 13
 171 00ca 938AF9FF 		addi	s5,s3,-1
 172              	.LVL19:
 173              	.L11:
  72:main.c        ****           prev_y = y + 1;
 174              		.loc 1 72 9 is_stmt 1
  73:main.c        **** 
 175              		.loc 1 73 18 is_stmt 0
 176 00ce 13091400 		addi	s2,s0,1
GAS LISTING C:\Users\kasie\AppData\Local\Temp\ccsE7b2d.s 			page 7


  72:main.c        ****           prev_y = y + 1;
 177              		.loc 1 72 12
 178 00d2 63840D00 		beq	s11,zero,.L13
  69:main.c        ****         if (!right)
 179              		.loc 1 69 13
 180 00d6 1309F4FF 		addi	s2,s0,-1
 181              	.L13:
  76:main.c        ****         LCD_ShowChar(prev_x + 16, prev_y, ch[1], TRANSPARENT, WHITE);
 182              		.loc 1 76 29
 183 00da 138A8A00 		addi	s4,s5,8
  76:main.c        ****         LCD_ShowChar(prev_x + 16, prev_y, ch[1], TRANSPARENT, WHITE);
 184              		.loc 1 76 9
 185 00de CA85     		mv	a1,s2
 186 00e0 2687     		mv	a4,s1
 187 00e2 8546     		li	a3,1
 188 00e4 1306E007 		li	a2,126
 189 00e8 5285     		mv	a0,s4
 190 00ea 42C6     		sw	a6,12(sp)
 191              	.LVL20:
  76:main.c        ****         LCD_ShowChar(prev_x + 16, prev_y, ch[1], TRANSPARENT, WHITE);
 192              		.loc 1 76 9 is_stmt 1
  77:main.c        ****         LCD_ShowChar(prev_x + 24, prev_y, ch[2], TRANSPARENT, WHITE);
 193              		.loc 1 77 29 is_stmt 0
 194 00ec 938C0A01 		addi	s9,s5,16
  76:main.c        ****         LCD_ShowChar(prev_x + 16, prev_y, ch[1], TRANSPARENT, WHITE);
 195              		.loc 1 76 9
 196 00f0 97000000 		call	LCD_ShowChar
 196      E7800000 
 197              	.LVL21:
  77:main.c        ****         LCD_ShowChar(prev_x + 24, prev_y, ch[2], TRANSPARENT, WHITE);
 198              		.loc 1 77 9 is_stmt 1
 199 00f8 CA85     		mv	a1,s2
 200 00fa 6685     		mv	a0,s9
 201 00fc 2687     		mv	a4,s1
 202 00fe 8546     		li	a3,1
 203 0100 1306F007 		li	a2,127
 204 0104 97000000 		call	LCD_ShowChar
 204      E7800000 
 205              	.LVL22:
  78:main.c        ****         LCD_ShowChar(prev_x + 32, prev_y, ch[3], TRANSPARENT, WHITE);
 206              		.loc 1 78 9
  78:main.c        ****         LCD_ShowChar(prev_x + 32, prev_y, ch[3], TRANSPARENT, WHITE);
 207              		.loc 1 78 29 is_stmt 0
 208 010c 138C8A01 		addi	s8,s5,24
  78:main.c        ****         LCD_ShowChar(prev_x + 32, prev_y, ch[3], TRANSPARENT, WHITE);
 209              		.loc 1 78 9
 210 0110 CA85     		mv	a1,s2
 211 0112 6285     		mv	a0,s8
 212 0114 2687     		mv	a4,s1
 213 0116 8546     		li	a3,1
 214 0118 13060008 		li	a2,128
 215 011c 97000000 		call	LCD_ShowChar
 215      E7800000 
 216              	.LVL23:
  79:main.c        ****         LCD_ShowChar(prev_x + 40, prev_y, ch[4], TRANSPARENT, WHITE);
 217              		.loc 1 79 9 is_stmt 1
  79:main.c        ****         LCD_ShowChar(prev_x + 40, prev_y, ch[4], TRANSPARENT, WHITE);
GAS LISTING C:\Users\kasie\AppData\Local\Temp\ccsE7b2d.s 			page 8


 218              		.loc 1 79 29 is_stmt 0
 219 0124 938B0A02 		addi	s7,s5,32
  79:main.c        ****         LCD_ShowChar(prev_x + 40, prev_y, ch[4], TRANSPARENT, WHITE);
 220              		.loc 1 79 9
 221 0128 CA85     		mv	a1,s2
 222 012a 5E85     		mv	a0,s7
 223 012c 2687     		mv	a4,s1
 224 012e 8546     		li	a3,1
 225 0130 13061008 		li	a2,129
 226 0134 97000000 		call	LCD_ShowChar
 226      E7800000 
 227              	.LVL24:
  80:main.c        ****         LCD_ShowChar(prev_x, prev_y, ch[23], TRANSPARENT, WHITE);
 228              		.loc 1 80 9 is_stmt 1
  80:main.c        ****         LCD_ShowChar(prev_x, prev_y, ch[23], TRANSPARENT, WHITE);
 229              		.loc 1 80 29 is_stmt 0
 230 013c 138D8A02 		addi	s10,s5,40
  80:main.c        ****         LCD_ShowChar(prev_x, prev_y, ch[23], TRANSPARENT, WHITE);
 231              		.loc 1 80 9
 232 0140 CA85     		mv	a1,s2
 233 0142 6A85     		mv	a0,s10
 234 0144 2687     		mv	a4,s1
 235 0146 8546     		li	a3,1
 236 0148 13062008 		li	a2,130
 237 014c 97000000 		call	LCD_ShowChar
 237      E7800000 
 238              	.LVL25:
  81:main.c        ****         LCD_ShowChar(prev_x + 40, prev_y, ch[5], TRANSPARENT, WHITE);
 239              		.loc 1 81 9 is_stmt 1
 240 0154 CA85     		mv	a1,s2
 241 0156 5685     		mv	a0,s5
 242 0158 2687     		mv	a4,s1
 243 015a 8546     		li	a3,1
 244 015c 13065009 		li	a2,149
 245 0160 97000000 		call	LCD_ShowChar
 245      E7800000 
 246              	.LVL26:
  82:main.c        ****         LCD_ShowChar(prev_x + 16, prev_y, ch[6], TRANSPARENT, WHITE);
 247              		.loc 1 82 9
 248 0168 CA85     		mv	a1,s2
 249 016a 6A85     		mv	a0,s10
 250 016c 2687     		mv	a4,s1
 251 016e 8546     		li	a3,1
 252 0170 13063008 		li	a2,131
 253 0174 97000000 		call	LCD_ShowChar
 253      E7800000 
 254              	.LVL27:
  83:main.c        ****         LCD_ShowChar(prev_x + 24, prev_y, ch[7], TRANSPARENT, WHITE);
 255              		.loc 1 83 9
 256 017c CA85     		mv	a1,s2
 257 017e 6685     		mv	a0,s9
 258 0180 2687     		mv	a4,s1
 259 0182 8546     		li	a3,1
 260 0184 13064008 		li	a2,132
 261 0188 97000000 		call	LCD_ShowChar
 261      E7800000 
 262              	.LVL28:
GAS LISTING C:\Users\kasie\AppData\Local\Temp\ccsE7b2d.s 			page 9


  84:main.c        ****         LCD_ShowChar(prev_x + 32, prev_y, ch[8], TRANSPARENT, WHITE);
 263              		.loc 1 84 9
 264 0190 CA85     		mv	a1,s2
 265 0192 6285     		mv	a0,s8
 266 0194 2687     		mv	a4,s1
 267 0196 8546     		li	a3,1
 268 0198 13065008 		li	a2,133
 269 019c 97000000 		call	LCD_ShowChar
 269      E7800000 
 270              	.LVL29:
  85:main.c        ****         LCD_ShowChar(prev_x + 8, prev_y, ch[9], TRANSPARENT, WHITE);
 271              		.loc 1 85 9
 272 01a4 CA85     		mv	a1,s2
 273 01a6 5E85     		mv	a0,s7
 274 01a8 2687     		mv	a4,s1
 275 01aa 8546     		li	a3,1
 276 01ac 13066008 		li	a2,134
 277 01b0 97000000 		call	LCD_ShowChar
 277      E7800000 
 278              	.LVL30:
  86:main.c        ****         LCD_ShowChar(prev_x + 16, prev_y, ch[10], TRANSPARENT, WHITE);
 279              		.loc 1 86 9
 280 01b8 CA85     		mv	a1,s2
 281 01ba 2687     		mv	a4,s1
 282 01bc 8546     		li	a3,1
 283 01be 13067008 		li	a2,135
 284 01c2 5285     		mv	a0,s4
 285 01c4 97000000 		call	LCD_ShowChar
 285      E7800000 
 286              	.LVL31:
  87:main.c        ****         LCD_ShowChar(prev_x + 24, prev_y, ch[11], TRANSPARENT, WHITE);
 287              		.loc 1 87 9
 288 01cc CA85     		mv	a1,s2
 289 01ce 6685     		mv	a0,s9
 290 01d0 2687     		mv	a4,s1
 291 01d2 8546     		li	a3,1
 292 01d4 13068008 		li	a2,136
 293 01d8 97000000 		call	LCD_ShowChar
 293      E7800000 
 294              	.LVL32:
  88:main.c        ****         LCD_ShowChar(prev_x + 32, prev_y, ch[12], TRANSPARENT, WHITE);
 295              		.loc 1 88 9
 296 01e0 CA85     		mv	a1,s2
 297 01e2 6285     		mv	a0,s8
 298 01e4 2687     		mv	a4,s1
 299 01e6 8546     		li	a3,1
 300 01e8 13069008 		li	a2,137
 301 01ec 97000000 		call	LCD_ShowChar
 301      E7800000 
 302              	.LVL33:
  89:main.c        ****         LCD_ShowChar(prev_x + 8, prev_y + 16, ch[13], TRANSPARENT, WHITE);
 303              		.loc 1 89 9
 304 01f4 CA85     		mv	a1,s2
 305 01f6 5E85     		mv	a0,s7
 306 01f8 2687     		mv	a4,s1
 307 01fa 8546     		li	a3,1
 308 01fc 1306A008 		li	a2,138
GAS LISTING C:\Users\kasie\AppData\Local\Temp\ccsE7b2d.s 			page 10


 309 0200 97000000 		call	LCD_ShowChar
 309      E7800000 
 310              	.LVL34:
  90:main.c        ****         LCD_ShowChar(prev_x + 16, prev_y + 16, ch[14], TRANSPARENT, WHITE);
 311              		.loc 1 90 9
  90:main.c        ****         LCD_ShowChar(prev_x + 16, prev_y + 16, ch[14], TRANSPARENT, WHITE);
 312              		.loc 1 90 41 is_stmt 0
 313 0208 930A0901 		addi	s5,s2,16
 314              	.LVL35:
  90:main.c        ****         LCD_ShowChar(prev_x + 16, prev_y + 16, ch[14], TRANSPARENT, WHITE);
 315              		.loc 1 90 9
 316 020c D685     		mv	a1,s5
 317 020e 2687     		mv	a4,s1
 318 0210 8546     		li	a3,1
 319 0212 1306B008 		li	a2,139
 320 0216 5285     		mv	a0,s4
 321 0218 97000000 		call	LCD_ShowChar
 321      E7800000 
 322              	.LVL36:
  91:main.c        ****         LCD_ShowChar(prev_x + 24, prev_y + 16, ch[15], TRANSPARENT, WHITE);
 323              		.loc 1 91 9 is_stmt 1
 324 0220 D685     		mv	a1,s5
 325 0222 6685     		mv	a0,s9
 326 0224 2687     		mv	a4,s1
 327 0226 8546     		li	a3,1
 328 0228 1306C008 		li	a2,140
 329 022c 97000000 		call	LCD_ShowChar
 329      E7800000 
 330              	.LVL37:
  92:main.c        ****         LCD_ShowChar(prev_x + 32, prev_y + 16, ch[16], TRANSPARENT, WHITE);
 331              		.loc 1 92 9
 332 0234 D685     		mv	a1,s5
 333 0236 6285     		mv	a0,s8
 334 0238 2687     		mv	a4,s1
 335 023a 8546     		li	a3,1
 336 023c 1306D008 		li	a2,141
 337 0240 97000000 		call	LCD_ShowChar
 337      E7800000 
 338              	.LVL38:
  93:main.c        ****         LCD_ShowChar(prev_x + 40, prev_y + 16, ch[17], TRANSPARENT, WHITE);
 339              		.loc 1 93 9
 340 0248 D685     		mv	a1,s5
 341 024a 5E85     		mv	a0,s7
 342 024c 2687     		mv	a4,s1
 343 024e 8546     		li	a3,1
 344 0250 1306E008 		li	a2,142
 345 0254 97000000 		call	LCD_ShowChar
 345      E7800000 
 346              	.LVL39:
  94:main.c        ****         LCD_ShowChar(prev_x + 8, prev_y + 32, ch[18], TRANSPARENT, WHITE);
 347              		.loc 1 94 9
 348 025c D685     		mv	a1,s5
 349 025e 6A85     		mv	a0,s10
 350 0260 2687     		mv	a4,s1
 351 0262 8546     		li	a3,1
 352 0264 1306F008 		li	a2,143
 353 0268 97000000 		call	LCD_ShowChar
GAS LISTING C:\Users\kasie\AppData\Local\Temp\ccsE7b2d.s 			page 11


 353      E7800000 
 354              	.LVL40:
  95:main.c        ****         LCD_ShowChar(prev_x + 16, prev_y + 32, ch[19], TRANSPARENT, WHITE);
 355              		.loc 1 95 9
  95:main.c        ****         LCD_ShowChar(prev_x + 16, prev_y + 32, ch[19], TRANSPARENT, WHITE);
 356              		.loc 1 95 41 is_stmt 0
 357 0270 13090902 		addi	s2,s2,32
 358              	.LVL41:
  95:main.c        ****         LCD_ShowChar(prev_x + 16, prev_y + 32, ch[19], TRANSPARENT, WHITE);
 359              		.loc 1 95 9
 360 0274 CA85     		mv	a1,s2
 361 0276 2687     		mv	a4,s1
 362 0278 8546     		li	a3,1
 363 027a 13060009 		li	a2,144
 364 027e 5285     		mv	a0,s4
 365 0280 97000000 		call	LCD_ShowChar
 365      E7800000 
 366              	.LVL42:
  96:main.c        ****         LCD_ShowChar(prev_x + 24, prev_y + 32, ch[20], TRANSPARENT, WHITE);
 367              		.loc 1 96 9 is_stmt 1
 368 0288 CA85     		mv	a1,s2
 369 028a 6685     		mv	a0,s9
 370 028c 2687     		mv	a4,s1
 371 028e 8546     		li	a3,1
 372 0290 13061009 		li	a2,145
 373 0294 97000000 		call	LCD_ShowChar
 373      E7800000 
 374              	.LVL43:
  97:main.c        ****         LCD_ShowChar(prev_x + 32, prev_y + 32, ch[21], TRANSPARENT, WHITE);
 375              		.loc 1 97 9
 376 029c CA85     		mv	a1,s2
 377 029e 6285     		mv	a0,s8
 378 02a0 2687     		mv	a4,s1
 379 02a2 8546     		li	a3,1
 380 02a4 13062009 		li	a2,146
 381 02a8 97000000 		call	LCD_ShowChar
 381      E7800000 
 382              	.LVL44:
  98:main.c        ****         LCD_ShowChar(prev_x + 40, prev_y + 32, ch[22], TRANSPARENT, WHITE);
 383              		.loc 1 98 9
 384 02b0 CA85     		mv	a1,s2
 385 02b2 5E85     		mv	a0,s7
 386 02b4 2687     		mv	a4,s1
 387 02b6 8546     		li	a3,1
 388 02b8 13063009 		li	a2,147
 389 02bc 97000000 		call	LCD_ShowChar
 389      E7800000 
 390              	.LVL45:
  99:main.c        **** 
 391              		.loc 1 99 9
 392 02c4 CA85     		mv	a1,s2
 393 02c6 6A85     		mv	a0,s10
 394 02c8 2687     		mv	a4,s1
 395 02ca 8546     		li	a3,1
 396 02cc 13064009 		li	a2,148
 397 02d0 97000000 		call	LCD_ShowChar
 397      E7800000 
GAS LISTING C:\Users\kasie\AppData\Local\Temp\ccsE7b2d.s 			page 12


 398              	.LVL46:
 102:main.c        ****         LCD_ShowChar(x + 16, y, ch[1], TRANSPARENT, BLACK);
 399              		.loc 1 102 9
 102:main.c        ****         LCD_ShowChar(x + 16, y, ch[1], TRANSPARENT, BLACK);
 400              		.loc 1 102 24 is_stmt 0
 401 02d8 138D8900 		addi	s10,s3,8
 402              	.LVL47:
 102:main.c        ****         LCD_ShowChar(x + 16, y, ch[1], TRANSPARENT, BLACK);
 403              		.loc 1 102 9
 404 02dc 0147     		li	a4,0
 405 02de 8546     		li	a3,1
 406 02e0 1306E007 		li	a2,126
 407 02e4 A285     		mv	a1,s0
 408 02e6 6A85     		mv	a0,s10
 409 02e8 97000000 		call	LCD_ShowChar
 409      E7800000 
 410              	.LVL48:
 103:main.c        ****         LCD_ShowChar(x + 24, y, ch[2], TRANSPARENT, BLACK);
 411              		.loc 1 103 9 is_stmt 1
 103:main.c        ****         LCD_ShowChar(x + 24, y, ch[2], TRANSPARENT, BLACK);
 412              		.loc 1 103 24 is_stmt 0
 413 02f0 138C0901 		addi	s8,s3,16
 103:main.c        ****         LCD_ShowChar(x + 24, y, ch[2], TRANSPARENT, BLACK);
 414              		.loc 1 103 9
 415 02f4 0147     		li	a4,0
 416 02f6 8546     		li	a3,1
 417 02f8 1306F007 		li	a2,127
 418 02fc A285     		mv	a1,s0
 419 02fe 6285     		mv	a0,s8
 420 0300 97000000 		call	LCD_ShowChar
 420      E7800000 
 421              	.LVL49:
 104:main.c        ****         LCD_ShowChar(x + 32, y, ch[3], TRANSPARENT, BLACK);
 422              		.loc 1 104 9 is_stmt 1
 104:main.c        ****         LCD_ShowChar(x + 32, y, ch[3], TRANSPARENT, BLACK);
 423              		.loc 1 104 24 is_stmt 0
 424 0308 938B8901 		addi	s7,s3,24
 425              	.LVL50:
 104:main.c        ****         LCD_ShowChar(x + 32, y, ch[3], TRANSPARENT, BLACK);
 426              		.loc 1 104 9
 427 030c 0147     		li	a4,0
 428 030e 8546     		li	a3,1
 429 0310 13060008 		li	a2,128
 430 0314 A285     		mv	a1,s0
 431 0316 5E85     		mv	a0,s7
 432 0318 97000000 		call	LCD_ShowChar
 432      E7800000 
 433              	.LVL51:
 105:main.c        ****         LCD_ShowChar(x + 40, y, ch[4], TRANSPARENT, BLACK);
 434              		.loc 1 105 9 is_stmt 1
 105:main.c        ****         LCD_ShowChar(x + 40, y, ch[4], TRANSPARENT, BLACK);
 435              		.loc 1 105 24 is_stmt 0
 436 0320 938A0902 		addi	s5,s3,32
 105:main.c        ****         LCD_ShowChar(x + 40, y, ch[4], TRANSPARENT, BLACK);
 437              		.loc 1 105 9
 438 0324 0147     		li	a4,0
 439 0326 8546     		li	a3,1
GAS LISTING C:\Users\kasie\AppData\Local\Temp\ccsE7b2d.s 			page 13


 440 0328 13061008 		li	a2,129
 441 032c A285     		mv	a1,s0
 442 032e 5685     		mv	a0,s5
 443 0330 97000000 		call	LCD_ShowChar
 443      E7800000 
 444              	.LVL52:
 106:main.c        ****         LCD_ShowChar(x, y, ch[23], TRANSPARENT, BLACK);
 445              		.loc 1 106 9 is_stmt 1
 106:main.c        ****         LCD_ShowChar(x, y, ch[23], TRANSPARENT, BLACK);
 446              		.loc 1 106 24 is_stmt 0
 447 0338 938C8902 		addi	s9,s3,40
 448              	.LVL53:
 106:main.c        ****         LCD_ShowChar(x, y, ch[23], TRANSPARENT, BLACK);
 449              		.loc 1 106 9
 450 033c 0147     		li	a4,0
 451 033e 8546     		li	a3,1
 452 0340 13062008 		li	a2,130
 453 0344 A285     		mv	a1,s0
 454 0346 6685     		mv	a0,s9
 455 0348 97000000 		call	LCD_ShowChar
 455      E7800000 
 456              	.LVL54:
 107:main.c        ****         LCD_ShowChar(x + 40, y, ch[5], TRANSPARENT, YELLOW);
 457              		.loc 1 107 9 is_stmt 1
 458 0350 0147     		li	a4,0
 459 0352 8546     		li	a3,1
 460 0354 13065009 		li	a2,149
 461 0358 A285     		mv	a1,s0
 462 035a 4E85     		mv	a0,s3
 463 035c 97000000 		call	LCD_ShowChar
 463      E7800000 
 464              	.LVL55:
 108:main.c        ****         LCD_ShowChar(x + 16, y, ch[6], TRANSPARENT, YELLOW);
 465              		.loc 1 108 9
 466 0364 5A87     		mv	a4,s6
 467 0366 8546     		li	a3,1
 468 0368 13063008 		li	a2,131
 469 036c A285     		mv	a1,s0
 470 036e 6685     		mv	a0,s9
 471 0370 97000000 		call	LCD_ShowChar
 471      E7800000 
 472              	.LVL56:
 109:main.c        ****         LCD_ShowChar(x + 24, y, ch[7], TRANSPARENT, YELLOW);
 473              		.loc 1 109 9
 474 0378 5A87     		mv	a4,s6
 475 037a 8546     		li	a3,1
 476 037c 13064008 		li	a2,132
 477 0380 A285     		mv	a1,s0
 478 0382 6285     		mv	a0,s8
 479 0384 97000000 		call	LCD_ShowChar
 479      E7800000 
 480              	.LVL57:
 110:main.c        ****         LCD_ShowChar(x + 32, y, ch[8], TRANSPARENT, YELLOW);
 481              		.loc 1 110 9
 482 038c 5A87     		mv	a4,s6
 483 038e 8546     		li	a3,1
 484 0390 13065008 		li	a2,133
GAS LISTING C:\Users\kasie\AppData\Local\Temp\ccsE7b2d.s 			page 14


 485 0394 A285     		mv	a1,s0
 486 0396 5E85     		mv	a0,s7
 487 0398 97000000 		call	LCD_ShowChar
 487      E7800000 
 488              	.LVL58:
 111:main.c        ****         LCD_ShowChar(x + 8, y, ch[9], TRANSPARENT, YELLOW);
 489              		.loc 1 111 9
 490 03a0 5A87     		mv	a4,s6
 491 03a2 8546     		li	a3,1
 492 03a4 13066008 		li	a2,134
 493 03a8 A285     		mv	a1,s0
 494 03aa 5685     		mv	a0,s5
 495 03ac 97000000 		call	LCD_ShowChar
 495      E7800000 
 496              	.LVL59:
 112:main.c        ****         LCD_ShowChar(x + 16, y, ch[10], TRANSPARENT, RED);
 497              		.loc 1 112 9
 498 03b4 5A87     		mv	a4,s6
 499 03b6 8546     		li	a3,1
 500 03b8 13067008 		li	a2,135
 501 03bc A285     		mv	a1,s0
 502 03be 6A85     		mv	a0,s10
 503 03c0 97000000 		call	LCD_ShowChar
 503      E7800000 
 504              	.LVL60:
 505              		.loc 1 113 9
 506 03c8 2247     		lw	a4,8(sp)
 507 03ca 8546     		li	a3,1
 508 03cc 13068008 		li	a2,136
 509 03d0 A285     		mv	a1,s0
 510 03d2 6285     		mv	a0,s8
 511 03d4 97000000 		call	LCD_ShowChar
 511      E7800000 
 512              	.LVL61:
 114:main.c        ****         LCD_ShowChar(x + 24, y, ch[11], TRANSPARENT, RED);
 513              		.loc 1 114 9
 514 03dc 2247     		lw	a4,8(sp)
 515 03de 8546     		li	a3,1
 516 03e0 13069008 		li	a2,137
 517 03e4 A285     		mv	a1,s0
 518 03e6 5E85     		mv	a0,s7
 519 03e8 97000000 		call	LCD_ShowChar
 519      E7800000 
 520              	.LVL62:
 115:main.c        ****         LCD_ShowChar(x + 32, y, ch[12], TRANSPARENT, RED);
 521              		.loc 1 115 9
 522 03f0 2247     		lw	a4,8(sp)
 523 03f2 8546     		li	a3,1
 524 03f4 1306A008 		li	a2,138
 525 03f8 A285     		mv	a1,s0
 526 03fa 5685     		mv	a0,s5
 527 03fc 97000000 		call	LCD_ShowChar
 527      E7800000 
 528              	.LVL63:
 116:main.c        ****         LCD_ShowChar(x + 8, y + 16, ch[13], TRANSPARENT, BLACK);
 529              		.loc 1 116 9
 530              		.loc 1 116 31 is_stmt 0
GAS LISTING C:\Users\kasie\AppData\Local\Temp\ccsE7b2d.s 			page 15


 531 0404 13090401 		addi	s2,s0,16
 532              	.LVL64:
 533              		.loc 1 116 9
 534 0408 CA85     		mv	a1,s2
 535 040a 0147     		li	a4,0
 536 040c 8546     		li	a3,1
 537 040e 1306B008 		li	a2,139
 538 0412 6A85     		mv	a0,s10
 539 0414 97000000 		call	LCD_ShowChar
 539      E7800000 
 540              	.LVL65:
 117:main.c        ****         LCD_ShowChar(x + 16, y + 16, ch[14], TRANSPARENT, BLACK);
 541              		.loc 1 117 9 is_stmt 1
 542 041c CA85     		mv	a1,s2
 543 041e 0147     		li	a4,0
 544 0420 8546     		li	a3,1
 545 0422 1306C008 		li	a2,140
 546 0426 6285     		mv	a0,s8
 547 0428 97000000 		call	LCD_ShowChar
 547      E7800000 
 548              	.LVL66:
 118:main.c        ****         LCD_ShowChar(x + 24, y + 16, ch[15], TRANSPARENT, BLACK);
 549              		.loc 1 118 9
 550 0430 CA85     		mv	a1,s2
 551 0432 0147     		li	a4,0
 552 0434 8546     		li	a3,1
 553 0436 1306D008 		li	a2,141
 554 043a 5E85     		mv	a0,s7
 555 043c 97000000 		call	LCD_ShowChar
 555      E7800000 
 556              	.LVL67:
 119:main.c        ****         LCD_ShowChar(x + 32, y + 16, ch[16], TRANSPARENT, BLACK);
 557              		.loc 1 119 9
 558 0444 CA85     		mv	a1,s2
 559 0446 0147     		li	a4,0
 560 0448 8546     		li	a3,1
 561 044a 1306E008 		li	a2,142
 562 044e 5685     		mv	a0,s5
 563 0450 97000000 		call	LCD_ShowChar
 563      E7800000 
 564              	.LVL68:
 120:main.c        ****         LCD_ShowChar(x + 40, y + 16, ch[17], TRANSPARENT, BLACK);
 565              		.loc 1 120 9
 566 0458 CA85     		mv	a1,s2
 567 045a 0147     		li	a4,0
 568 045c 8546     		li	a3,1
 569 045e 1306F008 		li	a2,143
 570 0462 6685     		mv	a0,s9
 571 0464 97000000 		call	LCD_ShowChar
 571      E7800000 
 572              	.LVL69:
 121:main.c        ****         LCD_ShowChar(x + 8, y + 32, ch[18], TRANSPARENT, BLACK);
 573              		.loc 1 121 9
 574              		.loc 1 121 31 is_stmt 0
 575 046c 13090402 		addi	s2,s0,32
 576              		.loc 1 121 9
 577 0470 0147     		li	a4,0
GAS LISTING C:\Users\kasie\AppData\Local\Temp\ccsE7b2d.s 			page 16


 578 0472 8546     		li	a3,1
 579 0474 13060009 		li	a2,144
 580 0478 CA85     		mv	a1,s2
 581 047a 6A85     		mv	a0,s10
 582 047c 97000000 		call	LCD_ShowChar
 582      E7800000 
 583              	.LVL70:
 122:main.c        ****         LCD_ShowChar(x + 16, y + 32, ch[19], TRANSPARENT, BLACK);
 584              		.loc 1 122 9 is_stmt 1
 585 0484 0147     		li	a4,0
 586 0486 8546     		li	a3,1
 587 0488 13061009 		li	a2,145
 588 048c CA85     		mv	a1,s2
 589 048e 6285     		mv	a0,s8
 590 0490 97000000 		call	LCD_ShowChar
 590      E7800000 
 591              	.LVL71:
 123:main.c        ****         LCD_ShowChar(x + 24, y + 32, ch[20], TRANSPARENT, BLACK);
 592              		.loc 1 123 9
 593 0498 0147     		li	a4,0
 594 049a 8546     		li	a3,1
 595 049c 13062009 		li	a2,146
 596 04a0 CA85     		mv	a1,s2
 597 04a2 5E85     		mv	a0,s7
 598 04a4 97000000 		call	LCD_ShowChar
 598      E7800000 
 599              	.LVL72:
 124:main.c        ****         LCD_ShowChar(x + 32, y + 32, ch[21], TRANSPARENT, BLACK);
 600              		.loc 1 124 9
 601 04ac 0147     		li	a4,0
 602 04ae 8546     		li	a3,1
 603 04b0 13063009 		li	a2,147
 604 04b4 CA85     		mv	a1,s2
 605 04b6 5685     		mv	a0,s5
 606 04b8 97000000 		call	LCD_ShowChar
 606      E7800000 
 607              	.LVL73:
 125:main.c        ****         LCD_ShowChar(x + 40, y + 32, ch[22], TRANSPARENT, BLACK);
 608              		.loc 1 125 9
 609 04c0 0147     		li	a4,0
 610 04c2 8546     		li	a3,1
 611 04c4 13064009 		li	a2,148
 612 04c8 CA85     		mv	a1,s2
 613 04ca 6685     		mv	a0,s9
 614 04cc 97000000 		call	LCD_ShowChar
 614      E7800000 
 615              	.LVL74:
 126:main.c        **** 
 127:main.c        ****         ms = 0;
 616              		.loc 1 127 9
 617 04d4 3248     		lw	a6,12(sp)
 618 04d6 79BE     		j	.L2
 619              	.LVL75:
 620              	.L19:
  41:main.c        ****         }
 621              		.loc 1 41 16 is_stmt 0
 622 04d8 814D     		li	s11,0
GAS LISTING C:\Users\kasie\AppData\Local\Temp\ccsE7b2d.s 			page 17


 623              	.LVL76:
 624 04da E9BE     		j	.L5
 625              	.LVL77:
 626              	.L20:
 627 04dc 814D     		li	s11,0
 628              	.LVL78:
 629 04de E9BE     		j	.L15
 630              	.LVL79:
 631              	.L21:
 632 04e0 814D     		li	s11,0
 633              	.LVL80:
 634              	.L6:
  55:main.c        ****         }
 635              		.loc 1 55 11 is_stmt 1
  55:main.c        ****         }
 636              		.loc 1 55 12 is_stmt 0
 637 04e2 FD19     		addi	s3,s3,-1
 638              	.LVL81:
 639 04e4 0148     		li	a6,0
 640 04e6 D9BE     		j	.L7
 641              	.L8:
  64:main.c        ****         }
 642              		.loc 1 64 11 is_stmt 1
  64:main.c        ****         }
 643              		.loc 1 64 12 is_stmt 0
 644 04e8 7D14     		addi	s0,s0,-1
 645              	.LVL82:
 646 04ea E1BE     		j	.L9
 647              	.LVL83:
 648              	.L4:
  39:main.c        ****         {
 649              		.loc 1 39 9 is_stmt 1
  39:main.c        ****         {
 650              		.loc 1 39 12 is_stmt 0
 651 04ec E3C887FE 		bgt	s0,a5,.L20
  43:main.c        ****         {
 652              		.loc 1 43 9 is_stmt 1
  43:main.c        ****         {
 653              		.loc 1 43 12 is_stmt 0
 654 04f0 E34480BC 		bgt	s0,zero,.L15
  45:main.c        ****         }
 655              		.loc 1 45 16
 656 04f4 854D     		li	s11,1
 657              	.LVL84:
 658 04f6 C9B6     		j	.L15
 659              	.LVL85:
 660              	.L3:
  39:main.c        ****         {
 661              		.loc 1 39 9 is_stmt 1
  39:main.c        ****         {
 662              		.loc 1 39 12 is_stmt 0
 663 04f8 FD47     		li	a5,31
 664 04fa E3C387FE 		bgt	s0,a5,.L21
  43:main.c        ****         {
 665              		.loc 1 43 9 is_stmt 1
  33:main.c        ****         }
 666              		.loc 1 33 17 is_stmt 0
GAS LISTING C:\Users\kasie\AppData\Local\Temp\ccsE7b2d.s 			page 18


 667 04fe 0148     		li	a6,0
  43:main.c        ****         {
 668              		.loc 1 43 12
 669 0500 E35980BA 		ble	s0,zero,.L18
 670 0504 F9BF     		j	.L6
 671              	.LBE4:
 672              		.cfi_endproc
 673              	.LFE2:
 675              		.text
 676              	.Letext0:
 677              		.file 2 "c:\\hukas\\code\\repositories\\toolchain-gd32v-v202-win\\compiler\\riscv64-unknown-elf\\i
 678              		.file 3 "c:\\hukas\\code\\repositories\\toolchain-gd32v-v202-win\\compiler\\riscv64-unknown-elf\\i
 679              		.file 4 "c:\\hukas\\code\\repositories\\toolchain-gd32v-v202-win\\compiler\\lib\\gcc\\riscv64-unkn
 680              		.file 5 "c:\\hukas\\code\\repositories\\toolchain-gd32v-v202-win\\compiler\\riscv64-unknown-elf\\i
 681              		.file 6 "c:\\hukas\\code\\repositories\\toolchain-gd32v-v202-win\\compiler\\riscv64-unknown-elf\\i
 682              		.file 7 "c:\\hukas\\code\\repositories\\toolchain-gd32v-v202-win\\compiler\\riscv64-unknown-elf\\i
 683              		.file 8 "./../../firmware/GD32VF103_standard_peripheral/system_gd32vf103.h"
 684              		.file 9 "c:\\hukas\\code\\repositories\\toolchain-gd32v-v202-win\\compiler\\riscv64-unknown-elf\\i
 685              		.file 10 "lcd.h"
 686              		.file 11 "drivers.h"
GAS LISTING C:\Users\kasie\AppData\Local\Temp\ccsE7b2d.s 			page 19

